   1              		.cpu cortex-m0
   2              		.eabi_attribute 20, 1
   3              		.eabi_attribute 21, 1
   4              		.eabi_attribute 23, 3
   5              		.eabi_attribute 24, 1
   6              		.eabi_attribute 25, 1
   7              		.eabi_attribute 26, 1
   8              		.eabi_attribute 30, 2
   9              		.eabi_attribute 34, 0
  10              		.eabi_attribute 18, 4
  11              		.file	"simpleserial.c"
  12              		.text
  13              	.Ltext0:
  14              		.cfi_sections	.debug_frame
  15              		.section	.text.simpleserial_put.constprop.0,"ax",%progbits
  16              		.align	1
  17              		.p2align 2,,3
  18              		.arch armv6s-m
  19              		.syntax unified
  20              		.code	16
  21              		.thumb_func
  22              		.fpu softvfp
  24              	simpleserial_put.constprop.0:
  25              	.LVL0:
  26              	.LFB11:
  27              		.file 1 ".././simpleserial/simpleserial.c"
   1:.././simpleserial/simpleserial.c **** // simpleserial.c
   2:.././simpleserial/simpleserial.c **** 
   3:.././simpleserial/simpleserial.c **** #include "simpleserial.h"
   4:.././simpleserial/simpleserial.c **** #include <stdint.h>
   5:.././simpleserial/simpleserial.c **** #include "hal.h"
   6:.././simpleserial/simpleserial.c **** 
   7:.././simpleserial/simpleserial.c **** 
   8:.././simpleserial/simpleserial.c **** #define MAX_SS_CMDS 16
   9:.././simpleserial/simpleserial.c **** static int num_commands = 0;
  10:.././simpleserial/simpleserial.c **** 
  11:.././simpleserial/simpleserial.c **** #define MAX_SS_LEN 256
  12:.././simpleserial/simpleserial.c **** 
  13:.././simpleserial/simpleserial.c **** //#define SS_VER_1_0 0
  14:.././simpleserial/simpleserial.c **** //#define SS_VER_1_1 1
  15:.././simpleserial/simpleserial.c **** //#define SS_VER_2_0 2
  16:.././simpleserial/simpleserial.c **** 
  17:.././simpleserial/simpleserial.c **** 
  18:.././simpleserial/simpleserial.c **** // 0xA6 formerly 
  19:.././simpleserial/simpleserial.c **** #define CW_CRC 0x4D 
  20:.././simpleserial/simpleserial.c **** uint8_t ss_crc(uint8_t *buf, uint8_t len)
  21:.././simpleserial/simpleserial.c **** {
  22:.././simpleserial/simpleserial.c **** 	unsigned int k = 0;
  23:.././simpleserial/simpleserial.c **** 	uint8_t crc = 0x00;
  24:.././simpleserial/simpleserial.c **** 	while (len--) {
  25:.././simpleserial/simpleserial.c **** 		crc ^= *buf++;
  26:.././simpleserial/simpleserial.c **** 		for (k = 0; k < 8; k++) {
  27:.././simpleserial/simpleserial.c **** 			crc = crc & 0x80 ? (crc << 1) ^ CW_CRC: crc << 1;
  28:.././simpleserial/simpleserial.c **** 		}
  29:.././simpleserial/simpleserial.c **** 	}
  30:.././simpleserial/simpleserial.c **** 	return crc;
  31:.././simpleserial/simpleserial.c **** 
  32:.././simpleserial/simpleserial.c **** }
  33:.././simpleserial/simpleserial.c **** 
  34:.././simpleserial/simpleserial.c **** // [B_STUFF, CMD, SCMD, LEN, B_STUFF, DATA..., CRC, TERM]
  35:.././simpleserial/simpleserial.c **** 
  36:.././simpleserial/simpleserial.c **** //#define SS_VER SS_VER_2_0
  37:.././simpleserial/simpleserial.c **** #if SS_VER == SS_VER_2_0
  38:.././simpleserial/simpleserial.c **** #error "SS_VER_2_0 is deprecated! Use SS_VER_2_1 instead."
  39:.././simpleserial/simpleserial.c **** #elif SS_VER == SS_VER_2_1
  40:.././simpleserial/simpleserial.c **** 
  41:.././simpleserial/simpleserial.c **** int hex_decode(int len, char* ascii_buf, uint8_t* data_buf)
  42:.././simpleserial/simpleserial.c **** {
  43:.././simpleserial/simpleserial.c **** 	for(int i = 0; i < len; i++)
  44:.././simpleserial/simpleserial.c **** 	{
  45:.././simpleserial/simpleserial.c **** 		char n_hi = ascii_buf[2*i];
  46:.././simpleserial/simpleserial.c **** 		char n_lo = ascii_buf[2*i+1];
  47:.././simpleserial/simpleserial.c **** 
  48:.././simpleserial/simpleserial.c **** 		if(n_lo >= '0' && n_lo <= '9')
  49:.././simpleserial/simpleserial.c **** 			data_buf[i] = n_lo - '0';
  50:.././simpleserial/simpleserial.c **** 		else if(n_lo >= 'A' && n_lo <= 'F')
  51:.././simpleserial/simpleserial.c **** 			data_buf[i] = n_lo - 'A' + 10;
  52:.././simpleserial/simpleserial.c **** 		else if(n_lo >= 'a' && n_lo <= 'f')
  53:.././simpleserial/simpleserial.c **** 			data_buf[i] = n_lo - 'a' + 10;
  54:.././simpleserial/simpleserial.c **** 		else
  55:.././simpleserial/simpleserial.c **** 			return 1;
  56:.././simpleserial/simpleserial.c **** 
  57:.././simpleserial/simpleserial.c **** 		if(n_hi >= '0' && n_hi <= '9')
  58:.././simpleserial/simpleserial.c **** 			data_buf[i] |= (n_hi - '0') << 4;
  59:.././simpleserial/simpleserial.c **** 		else if(n_hi >= 'A' && n_hi <= 'F')
  60:.././simpleserial/simpleserial.c **** 			data_buf[i] |= (n_hi - 'A' + 10) << 4;
  61:.././simpleserial/simpleserial.c **** 		else if(n_hi >= 'a' && n_hi <= 'f')
  62:.././simpleserial/simpleserial.c **** 			data_buf[i] |= (n_hi - 'a' + 10) << 4;
  63:.././simpleserial/simpleserial.c **** 		else
  64:.././simpleserial/simpleserial.c **** 			return 1;
  65:.././simpleserial/simpleserial.c **** 	}
  66:.././simpleserial/simpleserial.c **** 
  67:.././simpleserial/simpleserial.c **** 	return 0;
  68:.././simpleserial/simpleserial.c **** }
  69:.././simpleserial/simpleserial.c **** 
  70:.././simpleserial/simpleserial.c **** typedef struct ss_cmd
  71:.././simpleserial/simpleserial.c **** {
  72:.././simpleserial/simpleserial.c **** 	char c;
  73:.././simpleserial/simpleserial.c **** 	unsigned int len;
  74:.././simpleserial/simpleserial.c **** 	uint8_t (*fp)(uint8_t, uint8_t, uint8_t, uint8_t *);
  75:.././simpleserial/simpleserial.c **** } ss_cmd;
  76:.././simpleserial/simpleserial.c **** static ss_cmd commands[MAX_SS_CMDS];
  77:.././simpleserial/simpleserial.c **** 
  78:.././simpleserial/simpleserial.c **** void ss_puts(char *x)
  79:.././simpleserial/simpleserial.c **** {
  80:.././simpleserial/simpleserial.c **** 	do {
  81:.././simpleserial/simpleserial.c **** 		putch(*x);
  82:.././simpleserial/simpleserial.c **** 	} while (*++x);
  83:.././simpleserial/simpleserial.c **** }
  84:.././simpleserial/simpleserial.c **** 
  85:.././simpleserial/simpleserial.c **** #define FRAME_BYTE 0x00
  86:.././simpleserial/simpleserial.c **** 
  87:.././simpleserial/simpleserial.c **** uint8_t check_version(uint8_t cmd, uint8_t scmd, uint8_t len, uint8_t *data)
  88:.././simpleserial/simpleserial.c **** {
  89:.././simpleserial/simpleserial.c **** 	uint8_t ver = SS_VER;
  90:.././simpleserial/simpleserial.c **** 	simpleserial_put('r', 1, &ver);
  91:.././simpleserial/simpleserial.c **** 	return SS_ERR_OK;
  92:.././simpleserial/simpleserial.c **** }
  93:.././simpleserial/simpleserial.c **** 
  94:.././simpleserial/simpleserial.c **** uint8_t ss_get_commands(uint8_t cmd, uint8_t scmd, uint8_t len, uint8_t *data)
  95:.././simpleserial/simpleserial.c **** {
  96:.././simpleserial/simpleserial.c ****     uint8_t cmd_chars[MAX_SS_CMDS];
  97:.././simpleserial/simpleserial.c ****     for (uint8_t i = 0; i < (num_commands & 0xFF); i++) {
  98:.././simpleserial/simpleserial.c ****         cmd_chars[i] = commands[i].c;
  99:.././simpleserial/simpleserial.c ****     }
 100:.././simpleserial/simpleserial.c **** 
 101:.././simpleserial/simpleserial.c ****     simpleserial_put('r', num_commands & 0xFF, (void *)cmd_chars);
 102:.././simpleserial/simpleserial.c ****     return 0x00;
 103:.././simpleserial/simpleserial.c **** 
 104:.././simpleserial/simpleserial.c **** }
 105:.././simpleserial/simpleserial.c **** 
 106:.././simpleserial/simpleserial.c **** uint8_t stuff_data(uint8_t *buf, uint8_t len)
 107:.././simpleserial/simpleserial.c **** {
 108:.././simpleserial/simpleserial.c **** 	uint8_t i = 1;
 109:.././simpleserial/simpleserial.c **** 	uint8_t last = 0;
 110:.././simpleserial/simpleserial.c **** 	for (; i < len; i++) {
 111:.././simpleserial/simpleserial.c **** 		if (buf[i] == FRAME_BYTE) {
 112:.././simpleserial/simpleserial.c **** 			buf[last] = i - last;
 113:.././simpleserial/simpleserial.c **** 			last = i;
 114:.././simpleserial/simpleserial.c **** 		}
 115:.././simpleserial/simpleserial.c **** 	}
 116:.././simpleserial/simpleserial.c **** 	return 0x00;
 117:.././simpleserial/simpleserial.c **** }
 118:.././simpleserial/simpleserial.c **** 
 119:.././simpleserial/simpleserial.c **** uint8_t unstuff_data(uint8_t *buf, uint8_t len)
 120:.././simpleserial/simpleserial.c **** {
 121:.././simpleserial/simpleserial.c **** 	uint8_t next = buf[0];
 122:.././simpleserial/simpleserial.c **** 	buf[0] = 0x00;
 123:.././simpleserial/simpleserial.c **** 	//len -= 1;
 124:.././simpleserial/simpleserial.c **** 	uint8_t tmp = next;
 125:.././simpleserial/simpleserial.c **** 	while ((next < len) && tmp != 0) {
 126:.././simpleserial/simpleserial.c **** 		tmp = buf[next];
 127:.././simpleserial/simpleserial.c **** 		buf[next] = FRAME_BYTE;
 128:.././simpleserial/simpleserial.c **** 		next += tmp;
 129:.././simpleserial/simpleserial.c **** 	}
 130:.././simpleserial/simpleserial.c **** 	return next;
 131:.././simpleserial/simpleserial.c **** }
 132:.././simpleserial/simpleserial.c **** 
 133:.././simpleserial/simpleserial.c **** // Set up the SimpleSerial module by preparing internal commands
 134:.././simpleserial/simpleserial.c **** // This just adds the "v" command for now...
 135:.././simpleserial/simpleserial.c **** void simpleserial_init()
 136:.././simpleserial/simpleserial.c **** {
 137:.././simpleserial/simpleserial.c **** 	simpleserial_addcmd('v', 0, check_version);
 138:.././simpleserial/simpleserial.c ****     simpleserial_addcmd('w', 0, ss_get_commands);
 139:.././simpleserial/simpleserial.c **** }
 140:.././simpleserial/simpleserial.c **** 
 141:.././simpleserial/simpleserial.c **** int simpleserial_addcmd(char c, unsigned int len, uint8_t (*fp)(uint8_t, uint8_t, uint8_t, uint8_t*
 142:.././simpleserial/simpleserial.c **** {
 143:.././simpleserial/simpleserial.c **** 	if(num_commands >= MAX_SS_CMDS) {
 144:.././simpleserial/simpleserial.c **** 		putch('a');
 145:.././simpleserial/simpleserial.c **** 		return 1;
 146:.././simpleserial/simpleserial.c **** 	}
 147:.././simpleserial/simpleserial.c **** 
 148:.././simpleserial/simpleserial.c **** 	if(len >= MAX_SS_LEN) {
 149:.././simpleserial/simpleserial.c **** 		putch('b');
 150:.././simpleserial/simpleserial.c **** 		return 1;
 151:.././simpleserial/simpleserial.c **** 	}
 152:.././simpleserial/simpleserial.c **** 
 153:.././simpleserial/simpleserial.c **** 	commands[num_commands].c   = c;
 154:.././simpleserial/simpleserial.c **** 	commands[num_commands].len = len;
 155:.././simpleserial/simpleserial.c **** 	commands[num_commands].fp  = fp;
 156:.././simpleserial/simpleserial.c **** 	num_commands++;
 157:.././simpleserial/simpleserial.c **** 
 158:.././simpleserial/simpleserial.c **** 	return 0;
 159:.././simpleserial/simpleserial.c **** }
 160:.././simpleserial/simpleserial.c **** 
 161:.././simpleserial/simpleserial.c **** void simpleserial_get(void)
 162:.././simpleserial/simpleserial.c **** {
 163:.././simpleserial/simpleserial.c **** 	uint8_t data_buf[MAX_SS_LEN];
 164:.././simpleserial/simpleserial.c **** 	uint8_t err = 0;
 165:.././simpleserial/simpleserial.c **** 
 166:.././simpleserial/simpleserial.c **** 	for (int i = 0; i < 4; i++) {
 167:.././simpleserial/simpleserial.c **** 		data_buf[i] = getch(); //PTR, cmd, scmd, len
 168:.././simpleserial/simpleserial.c **** 		if (data_buf[i] == FRAME_BYTE) {
 169:.././simpleserial/simpleserial.c **** 			err = SS_ERR_FRAME_BYTE;
 170:.././simpleserial/simpleserial.c **** 			goto ERROR;
 171:.././simpleserial/simpleserial.c **** 		}
 172:.././simpleserial/simpleserial.c **** 	}
 173:.././simpleserial/simpleserial.c **** 	uint8_t next_frame = unstuff_data(data_buf, 4);
 174:.././simpleserial/simpleserial.c **** 
 175:.././simpleserial/simpleserial.c **** 	// check for valid command
 176:.././simpleserial/simpleserial.c **** 	uint8_t c = 0;
 177:.././simpleserial/simpleserial.c **** 	for(c = 0; c < num_commands; c++)
 178:.././simpleserial/simpleserial.c **** 	{
 179:.././simpleserial/simpleserial.c **** 		if(commands[c].c == data_buf[1])
 180:.././simpleserial/simpleserial.c **** 			break;
 181:.././simpleserial/simpleserial.c **** 	}
 182:.././simpleserial/simpleserial.c **** 
 183:.././simpleserial/simpleserial.c **** 	if (c == num_commands) {
 184:.././simpleserial/simpleserial.c **** 		err = SS_ERR_CMD;
 185:.././simpleserial/simpleserial.c **** 		goto ERROR;
 186:.././simpleserial/simpleserial.c **** 	}
 187:.././simpleserial/simpleserial.c **** 
 188:.././simpleserial/simpleserial.c **** 	//check that next frame not beyond end of message
 189:.././simpleserial/simpleserial.c **** 	// account for cmd, scmd, len, data, crc, end of frame
 190:.././simpleserial/simpleserial.c **** 	if ((data_buf[3] + 5) < next_frame) {
 191:.././simpleserial/simpleserial.c **** 		err = SS_ERR_LEN;
 192:.././simpleserial/simpleserial.c **** 		goto ERROR;
 193:.././simpleserial/simpleserial.c **** 	}
 194:.././simpleserial/simpleserial.c **** 
 195:.././simpleserial/simpleserial.c **** 	// read in data
 196:.././simpleserial/simpleserial.c **** 	// eq to len + crc + frame end
 197:.././simpleserial/simpleserial.c **** 	int i = 4;
 198:.././simpleserial/simpleserial.c **** 	for (; i < data_buf[3] + 5; i++) {
 199:.././simpleserial/simpleserial.c **** 		data_buf[i] = getch();
 200:.././simpleserial/simpleserial.c **** 		if (data_buf[i] == FRAME_BYTE) {
 201:.././simpleserial/simpleserial.c **** 			err = SS_ERR_FRAME_BYTE;
 202:.././simpleserial/simpleserial.c **** 			goto ERROR;
 203:.././simpleserial/simpleserial.c **** 		}
 204:.././simpleserial/simpleserial.c **** 	}
 205:.././simpleserial/simpleserial.c **** 
 206:.././simpleserial/simpleserial.c **** 	//check that final byte is the FRAME_BYTE
 207:.././simpleserial/simpleserial.c **** 	data_buf[i] = getch();
 208:.././simpleserial/simpleserial.c **** 	if (data_buf[i] != FRAME_BYTE) {
 209:.././simpleserial/simpleserial.c **** 		err = SS_ERR_LEN;
 210:.././simpleserial/simpleserial.c **** 		goto ERROR;
 211:.././simpleserial/simpleserial.c **** 	}
 212:.././simpleserial/simpleserial.c **** 
 213:.././simpleserial/simpleserial.c **** 	//fully unstuff data now
 214:.././simpleserial/simpleserial.c **** 	unstuff_data(data_buf + next_frame, i - next_frame + 1);
 215:.././simpleserial/simpleserial.c **** 
 216:.././simpleserial/simpleserial.c **** 	//calc crc excluding original frame offset and frame end and crc
 217:.././simpleserial/simpleserial.c **** 	uint8_t crc = ss_crc(data_buf+1, i-2);
 218:.././simpleserial/simpleserial.c **** 	if (crc != data_buf[i-1]) {
 219:.././simpleserial/simpleserial.c **** 		err = SS_ERR_CRC;
 220:.././simpleserial/simpleserial.c **** 		goto ERROR;
 221:.././simpleserial/simpleserial.c **** 	}
 222:.././simpleserial/simpleserial.c **** 
 223:.././simpleserial/simpleserial.c **** 	err = commands[c].fp(data_buf[1], data_buf[2], data_buf[3], data_buf+4);
 224:.././simpleserial/simpleserial.c **** 
 225:.././simpleserial/simpleserial.c **** ERROR:
 226:.././simpleserial/simpleserial.c **** 	simpleserial_put('e', 0x01, &err);
 227:.././simpleserial/simpleserial.c **** 	return;
 228:.././simpleserial/simpleserial.c **** }
 229:.././simpleserial/simpleserial.c **** 
 230:.././simpleserial/simpleserial.c **** void simpleserial_put(char c, uint8_t size, uint8_t* output)
  28              		.loc 1 230 6 view -0
  29              		.cfi_startproc
  30              		@ args = 0, pretend = 0, frame = 256
  31              		@ frame_needed = 0, uses_anonymous_args = 0
 231:.././simpleserial/simpleserial.c **** {
 232:.././simpleserial/simpleserial.c **** 	uint8_t data_buf[MAX_SS_LEN];
  32              		.loc 1 232 2 view .LVU1
 233:.././simpleserial/simpleserial.c **** 	data_buf[0] = 0x00;
  33              		.loc 1 233 2 view .LVU2
 230:.././simpleserial/simpleserial.c **** {
  34              		.loc 1 230 6 is_stmt 0 view .LVU3
  35 0000 30B5     		push	{r4, r5, lr}
  36              	.LCFI0:
  37              		.cfi_def_cfa_offset 12
  38              		.cfi_offset 4, -12
  39              		.cfi_offset 5, -8
  40              		.cfi_offset 14, -4
  41 0002 C1B0     		sub	sp, sp, #260
  42              	.LCFI1:
  43              		.cfi_def_cfa_offset 272
  44              		.loc 1 233 14 view .LVU4
  45 0004 6A46     		mov	r2, sp
  46 0006 0023     		movs	r3, #0
  47 0008 1370     		strb	r3, [r2]
 234:.././simpleserial/simpleserial.c **** 	data_buf[1] = c;
  48              		.loc 1 234 2 is_stmt 1 view .LVU5
 235:.././simpleserial/simpleserial.c **** 	data_buf[2] = size;
  49              		.loc 1 235 14 is_stmt 0 view .LVU6
  50 000a 0123     		movs	r3, #1
 236:.././simpleserial/simpleserial.c **** 	int i = 0;
 237:.././simpleserial/simpleserial.c **** 	for (; i < size; i++) {
 238:.././simpleserial/simpleserial.c **** 		data_buf[i + 3] = output[i];
  51              		.loc 1 238 27 view .LVU7
  52 000c 0978     		ldrb	r1, [r1]
  53              	.LVL1:
 235:.././simpleserial/simpleserial.c **** 	data_buf[2] = size;
  54              		.loc 1 235 14 view .LVU8
  55 000e 9370     		strb	r3, [r2, #2]
  56              	.LBB19:
  57              	.LBB20:
  27:.././simpleserial/simpleserial.c **** 		}
  58              		.loc 1 27 8 view .LVU9
  59 0010 43B2     		sxtb	r3, r0
  60              	.LBE20:
  61              	.LBE19:
 234:.././simpleserial/simpleserial.c **** 	data_buf[2] = size;
  62              		.loc 1 234 14 view .LVU10
  63 0012 5070     		strb	r0, [r2, #1]
 235:.././simpleserial/simpleserial.c **** 	int i = 0;
  64              		.loc 1 235 2 is_stmt 1 view .LVU11
 236:.././simpleserial/simpleserial.c **** 	for (; i < size; i++) {
  65              		.loc 1 236 2 view .LVU12
  66              	.LVL2:
 237:.././simpleserial/simpleserial.c **** 		data_buf[i + 3] = output[i];
  67              		.loc 1 237 2 view .LVU13
 237:.././simpleserial/simpleserial.c **** 		data_buf[i + 3] = output[i];
  68              		.loc 1 237 9 view .LVU14
  69              		.loc 1 238 3 view .LVU15
  70              		.loc 1 238 19 is_stmt 0 view .LVU16
  71 0014 D170     		strb	r1, [r2, #3]
 237:.././simpleserial/simpleserial.c **** 		data_buf[i + 3] = output[i];
  72              		.loc 1 237 19 is_stmt 1 view .LVU17
  73              	.LVL3:
 237:.././simpleserial/simpleserial.c **** 		data_buf[i + 3] = output[i];
  74              		.loc 1 237 9 view .LVU18
 239:.././simpleserial/simpleserial.c **** 	}
 240:.././simpleserial/simpleserial.c **** 	data_buf[i + 3] = ss_crc(data_buf+1, size+2);
  75              		.loc 1 240 2 view .LVU19
  76              	.LBB24:
  77              	.LBI19:
  20:.././simpleserial/simpleserial.c **** {
  78              		.loc 1 20 9 view .LVU20
  79              	.LBB21:
  22:.././simpleserial/simpleserial.c **** 	uint8_t crc = 0x00;
  80              		.loc 1 22 2 view .LVU21
  23:.././simpleserial/simpleserial.c **** 	while (len--) {
  81              		.loc 1 23 2 view .LVU22
  24:.././simpleserial/simpleserial.c **** 		crc ^= *buf++;
  82              		.loc 1 24 2 view .LVU23
  24:.././simpleserial/simpleserial.c **** 		crc ^= *buf++;
  83              		.loc 1 24 8 view .LVU24
  25:.././simpleserial/simpleserial.c **** 		for (k = 0; k < 8; k++) {
  84              		.loc 1 25 3 view .LVU25
  26:.././simpleserial/simpleserial.c **** 			crc = crc & 0x80 ? (crc << 1) ^ CW_CRC: crc << 1;
  85              		.loc 1 26 3 view .LVU26
  26:.././simpleserial/simpleserial.c **** 			crc = crc & 0x80 ? (crc << 1) ^ CW_CRC: crc << 1;
  86              		.loc 1 26 15 view .LVU27
  27:.././simpleserial/simpleserial.c **** 		}
  87              		.loc 1 27 4 view .LVU28
  27:.././simpleserial/simpleserial.c **** 		}
  88              		.loc 1 27 8 is_stmt 0 view .LVU29
  89 0016 002B     		cmp	r3, #0
  90 0018 00DA     		bge	.LCB73
  91 001a 45E1     		b	.L66	@long jump
  92              	.LCB73:
  93 001c 4200     		lsls	r2, r0, #1
  94 001e D3B2     		uxtb	r3, r2
  27:.././simpleserial/simpleserial.c **** 		}
  95              		.loc 1 27 21 view .LVU30
  96 0020 52B2     		sxtb	r2, r2
  97              	.L3:
  98              	.LVL4:
  26:.././simpleserial/simpleserial.c **** 			crc = crc & 0x80 ? (crc << 1) ^ CW_CRC: crc << 1;
  99              		.loc 1 26 22 is_stmt 1 view .LVU31
  26:.././simpleserial/simpleserial.c **** 			crc = crc & 0x80 ? (crc << 1) ^ CW_CRC: crc << 1;
 100              		.loc 1 26 15 view .LVU32
  27:.././simpleserial/simpleserial.c **** 		}
 101              		.loc 1 27 4 view .LVU33
  27:.././simpleserial/simpleserial.c **** 		}
 102              		.loc 1 27 8 is_stmt 0 view .LVU34
 103 0022 002A     		cmp	r2, #0
 104 0024 00DA     		bge	.LCB86
 105 0026 39E1     		b	.L67	@long jump
 106              	.LCB86:
 107 0028 5A00     		lsls	r2, r3, #1
 108 002a D3B2     		uxtb	r3, r2
 109              	.LVL5:
  27:.././simpleserial/simpleserial.c **** 		}
 110              		.loc 1 27 21 view .LVU35
 111 002c 52B2     		sxtb	r2, r2
 112              	.L5:
 113              	.LVL6:
  26:.././simpleserial/simpleserial.c **** 			crc = crc & 0x80 ? (crc << 1) ^ CW_CRC: crc << 1;
 114              		.loc 1 26 22 is_stmt 1 view .LVU36
  26:.././simpleserial/simpleserial.c **** 			crc = crc & 0x80 ? (crc << 1) ^ CW_CRC: crc << 1;
 115              		.loc 1 26 15 view .LVU37
  27:.././simpleserial/simpleserial.c **** 		}
 116              		.loc 1 27 4 view .LVU38
  27:.././simpleserial/simpleserial.c **** 		}
 117              		.loc 1 27 8 is_stmt 0 view .LVU39
 118 002e 002A     		cmp	r2, #0
 119 0030 00DA     		bge	.LCB100
 120 0032 2DE1     		b	.L68	@long jump
 121              	.LCB100:
 122 0034 5A00     		lsls	r2, r3, #1
 123 0036 D3B2     		uxtb	r3, r2
 124              	.LVL7:
  27:.././simpleserial/simpleserial.c **** 		}
 125              		.loc 1 27 21 view .LVU40
 126 0038 52B2     		sxtb	r2, r2
 127              	.L7:
 128              	.LVL8:
  26:.././simpleserial/simpleserial.c **** 			crc = crc & 0x80 ? (crc << 1) ^ CW_CRC: crc << 1;
 129              		.loc 1 26 22 is_stmt 1 view .LVU41
  26:.././simpleserial/simpleserial.c **** 			crc = crc & 0x80 ? (crc << 1) ^ CW_CRC: crc << 1;
 130              		.loc 1 26 15 view .LVU42
  27:.././simpleserial/simpleserial.c **** 		}
 131              		.loc 1 27 4 view .LVU43
  27:.././simpleserial/simpleserial.c **** 		}
 132              		.loc 1 27 8 is_stmt 0 view .LVU44
 133 003a 002A     		cmp	r2, #0
 134 003c 00DA     		bge	.LCB114
 135 003e 21E1     		b	.L69	@long jump
 136              	.LCB114:
 137 0040 5A00     		lsls	r2, r3, #1
 138 0042 D3B2     		uxtb	r3, r2
 139              	.LVL9:
  27:.././simpleserial/simpleserial.c **** 		}
 140              		.loc 1 27 21 view .LVU45
 141 0044 52B2     		sxtb	r2, r2
 142              	.L9:
 143              	.LVL10:
  26:.././simpleserial/simpleserial.c **** 			crc = crc & 0x80 ? (crc << 1) ^ CW_CRC: crc << 1;
 144              		.loc 1 26 22 is_stmt 1 view .LVU46
  26:.././simpleserial/simpleserial.c **** 			crc = crc & 0x80 ? (crc << 1) ^ CW_CRC: crc << 1;
 145              		.loc 1 26 15 view .LVU47
  27:.././simpleserial/simpleserial.c **** 		}
 146              		.loc 1 27 4 view .LVU48
  27:.././simpleserial/simpleserial.c **** 		}
 147              		.loc 1 27 8 is_stmt 0 view .LVU49
 148 0046 002A     		cmp	r2, #0
 149 0048 00DA     		bge	.LCB128
 150 004a 15E1     		b	.L70	@long jump
 151              	.LCB128:
 152 004c 5A00     		lsls	r2, r3, #1
 153 004e D3B2     		uxtb	r3, r2
 154              	.LVL11:
  27:.././simpleserial/simpleserial.c **** 		}
 155              		.loc 1 27 21 view .LVU50
 156 0050 52B2     		sxtb	r2, r2
 157              	.L11:
 158              	.LVL12:
  26:.././simpleserial/simpleserial.c **** 			crc = crc & 0x80 ? (crc << 1) ^ CW_CRC: crc << 1;
 159              		.loc 1 26 22 is_stmt 1 view .LVU51
  26:.././simpleserial/simpleserial.c **** 			crc = crc & 0x80 ? (crc << 1) ^ CW_CRC: crc << 1;
 160              		.loc 1 26 15 view .LVU52
  27:.././simpleserial/simpleserial.c **** 		}
 161              		.loc 1 27 4 view .LVU53
  27:.././simpleserial/simpleserial.c **** 		}
 162              		.loc 1 27 8 is_stmt 0 view .LVU54
 163 0052 002A     		cmp	r2, #0
 164 0054 00DA     		bge	.LCB142
 165 0056 09E1     		b	.L71	@long jump
 166              	.LCB142:
 167 0058 5A00     		lsls	r2, r3, #1
 168 005a D3B2     		uxtb	r3, r2
 169              	.LVL13:
  27:.././simpleserial/simpleserial.c **** 		}
 170              		.loc 1 27 21 view .LVU55
 171 005c 52B2     		sxtb	r2, r2
 172              	.L13:
 173              	.LVL14:
  26:.././simpleserial/simpleserial.c **** 			crc = crc & 0x80 ? (crc << 1) ^ CW_CRC: crc << 1;
 174              		.loc 1 26 22 is_stmt 1 view .LVU56
  26:.././simpleserial/simpleserial.c **** 			crc = crc & 0x80 ? (crc << 1) ^ CW_CRC: crc << 1;
 175              		.loc 1 26 15 view .LVU57
  27:.././simpleserial/simpleserial.c **** 		}
 176              		.loc 1 27 4 view .LVU58
  27:.././simpleserial/simpleserial.c **** 		}
 177              		.loc 1 27 8 is_stmt 0 view .LVU59
 178 005e 002A     		cmp	r2, #0
 179 0060 00DA     		bge	.LCB156
 180 0062 FDE0     		b	.L72	@long jump
 181              	.LCB156:
 182 0064 5A00     		lsls	r2, r3, #1
 183 0066 D3B2     		uxtb	r3, r2
 184              	.LVL15:
  27:.././simpleserial/simpleserial.c **** 		}
 185              		.loc 1 27 21 view .LVU60
 186 0068 52B2     		sxtb	r2, r2
 187              	.L15:
 188              	.LVL16:
  26:.././simpleserial/simpleserial.c **** 			crc = crc & 0x80 ? (crc << 1) ^ CW_CRC: crc << 1;
 189              		.loc 1 26 22 is_stmt 1 view .LVU61
  26:.././simpleserial/simpleserial.c **** 			crc = crc & 0x80 ? (crc << 1) ^ CW_CRC: crc << 1;
 190              		.loc 1 26 15 view .LVU62
  27:.././simpleserial/simpleserial.c **** 		}
 191              		.loc 1 27 4 view .LVU63
  27:.././simpleserial/simpleserial.c **** 		}
 192              		.loc 1 27 28 is_stmt 0 view .LVU64
 193 006a 5B00     		lsls	r3, r3, #1
 194              	.LVL17:
  27:.././simpleserial/simpleserial.c **** 		}
 195              		.loc 1 27 8 view .LVU65
 196 006c 002A     		cmp	r2, #0
 197 006e 00DA     		bge	.LCB172
 198 0070 F2E0     		b	.L73	@long jump
 199              	.LCB172:
 200 0072 DBB2     		uxtb	r3, r3
 201              	.L17:
 202              	.LVL18:
  24:.././simpleserial/simpleserial.c **** 		crc ^= *buf++;
 203              		.loc 1 24 8 is_stmt 1 view .LVU66
  25:.././simpleserial/simpleserial.c **** 		for (k = 0; k < 8; k++) {
 204              		.loc 1 25 3 view .LVU67
  25:.././simpleserial/simpleserial.c **** 		for (k = 0; k < 8; k++) {
 205              		.loc 1 25 7 is_stmt 0 view .LVU68
 206 0074 0122     		movs	r2, #1
 207 0076 5340     		eors	r3, r2
 208              	.LVL19:
  26:.././simpleserial/simpleserial.c **** 			crc = crc & 0x80 ? (crc << 1) ^ CW_CRC: crc << 1;
 209              		.loc 1 26 3 is_stmt 1 view .LVU69
  26:.././simpleserial/simpleserial.c **** 			crc = crc & 0x80 ? (crc << 1) ^ CW_CRC: crc << 1;
 210              		.loc 1 26 15 view .LVU70
  27:.././simpleserial/simpleserial.c **** 		}
 211              		.loc 1 27 4 view .LVU71
  27:.././simpleserial/simpleserial.c **** 		}
 212              		.loc 1 27 8 is_stmt 0 view .LVU72
 213 0078 5AB2     		sxtb	r2, r3
  27:.././simpleserial/simpleserial.c **** 		}
 214              		.loc 1 27 28 view .LVU73
 215 007a 5B00     		lsls	r3, r3, #1
 216              	.LVL20:
  27:.././simpleserial/simpleserial.c **** 		}
 217              		.loc 1 27 8 view .LVU74
 218 007c 002A     		cmp	r2, #0
 219 007e 00DA     		bge	.LCB198
 220 0080 E5E0     		b	.L74	@long jump
 221              	.LCB198:
 222 0082 DCB2     		uxtb	r4, r3
  27:.././simpleserial/simpleserial.c **** 		}
 223              		.loc 1 27 21 view .LVU75
 224 0084 5AB2     		sxtb	r2, r3
 225              	.LVL21:
 226              	.L19:
  26:.././simpleserial/simpleserial.c **** 			crc = crc & 0x80 ? (crc << 1) ^ CW_CRC: crc << 1;
 227              		.loc 1 26 22 is_stmt 1 view .LVU76
  26:.././simpleserial/simpleserial.c **** 			crc = crc & 0x80 ? (crc << 1) ^ CW_CRC: crc << 1;
 228              		.loc 1 26 15 view .LVU77
  27:.././simpleserial/simpleserial.c **** 		}
 229              		.loc 1 27 4 view .LVU78
  27:.././simpleserial/simpleserial.c **** 		}
 230              		.loc 1 27 8 is_stmt 0 view .LVU79
 231 0086 002A     		cmp	r2, #0
 232 0088 00DA     		bge	.LCB211
 233 008a DAE0     		b	.L75	@long jump
 234              	.LCB211:
 235 008c 6200     		lsls	r2, r4, #1
 236 008e D3B2     		uxtb	r3, r2
  27:.././simpleserial/simpleserial.c **** 		}
 237              		.loc 1 27 21 view .LVU80
 238 0090 52B2     		sxtb	r2, r2
 239              	.L21:
 240              	.LVL22:
  26:.././simpleserial/simpleserial.c **** 			crc = crc & 0x80 ? (crc << 1) ^ CW_CRC: crc << 1;
 241              		.loc 1 26 22 is_stmt 1 view .LVU81
  26:.././simpleserial/simpleserial.c **** 			crc = crc & 0x80 ? (crc << 1) ^ CW_CRC: crc << 1;
 242              		.loc 1 26 15 view .LVU82
  27:.././simpleserial/simpleserial.c **** 		}
 243              		.loc 1 27 4 view .LVU83
  27:.././simpleserial/simpleserial.c **** 		}
 244              		.loc 1 27 8 is_stmt 0 view .LVU84
 245 0092 002A     		cmp	r2, #0
 246 0094 00DA     		bge	.LCB224
 247 0096 CEE0     		b	.L76	@long jump
 248              	.LCB224:
 249 0098 5A00     		lsls	r2, r3, #1
 250 009a D3B2     		uxtb	r3, r2
 251              	.LVL23:
  27:.././simpleserial/simpleserial.c **** 		}
 252              		.loc 1 27 21 view .LVU85
 253 009c 52B2     		sxtb	r2, r2
 254              	.L23:
 255              	.LVL24:
  26:.././simpleserial/simpleserial.c **** 			crc = crc & 0x80 ? (crc << 1) ^ CW_CRC: crc << 1;
 256              		.loc 1 26 22 is_stmt 1 view .LVU86
  26:.././simpleserial/simpleserial.c **** 			crc = crc & 0x80 ? (crc << 1) ^ CW_CRC: crc << 1;
 257              		.loc 1 26 15 view .LVU87
  27:.././simpleserial/simpleserial.c **** 		}
 258              		.loc 1 27 4 view .LVU88
  27:.././simpleserial/simpleserial.c **** 		}
 259              		.loc 1 27 8 is_stmt 0 view .LVU89
 260 009e 002A     		cmp	r2, #0
 261 00a0 00DA     		bge	.LCB238
 262 00a2 C2E0     		b	.L77	@long jump
 263              	.LCB238:
 264 00a4 5A00     		lsls	r2, r3, #1
 265 00a6 D3B2     		uxtb	r3, r2
 266              	.LVL25:
  27:.././simpleserial/simpleserial.c **** 		}
 267              		.loc 1 27 21 view .LVU90
 268 00a8 52B2     		sxtb	r2, r2
 269              	.L25:
 270              	.LVL26:
  26:.././simpleserial/simpleserial.c **** 			crc = crc & 0x80 ? (crc << 1) ^ CW_CRC: crc << 1;
 271              		.loc 1 26 22 is_stmt 1 view .LVU91
  26:.././simpleserial/simpleserial.c **** 			crc = crc & 0x80 ? (crc << 1) ^ CW_CRC: crc << 1;
 272              		.loc 1 26 15 view .LVU92
  27:.././simpleserial/simpleserial.c **** 		}
 273              		.loc 1 27 4 view .LVU93
  27:.././simpleserial/simpleserial.c **** 		}
 274              		.loc 1 27 8 is_stmt 0 view .LVU94
 275 00aa 002A     		cmp	r2, #0
 276 00ac 00DA     		bge	.LCB252
 277 00ae B6E0     		b	.L78	@long jump
 278              	.LCB252:
 279 00b0 5A00     		lsls	r2, r3, #1
 280 00b2 D3B2     		uxtb	r3, r2
 281              	.LVL27:
  27:.././simpleserial/simpleserial.c **** 		}
 282              		.loc 1 27 21 view .LVU95
 283 00b4 52B2     		sxtb	r2, r2
 284              	.L27:
 285              	.LVL28:
  26:.././simpleserial/simpleserial.c **** 			crc = crc & 0x80 ? (crc << 1) ^ CW_CRC: crc << 1;
 286              		.loc 1 26 22 is_stmt 1 view .LVU96
  26:.././simpleserial/simpleserial.c **** 			crc = crc & 0x80 ? (crc << 1) ^ CW_CRC: crc << 1;
 287              		.loc 1 26 15 view .LVU97
  27:.././simpleserial/simpleserial.c **** 		}
 288              		.loc 1 27 4 view .LVU98
  27:.././simpleserial/simpleserial.c **** 		}
 289              		.loc 1 27 8 is_stmt 0 view .LVU99
 290 00b6 002A     		cmp	r2, #0
 291 00b8 00DA     		bge	.LCB266
 292 00ba AAE0     		b	.L79	@long jump
 293              	.LCB266:
 294 00bc 5A00     		lsls	r2, r3, #1
 295 00be D3B2     		uxtb	r3, r2
 296              	.LVL29:
  27:.././simpleserial/simpleserial.c **** 		}
 297              		.loc 1 27 21 view .LVU100
 298 00c0 52B2     		sxtb	r2, r2
 299              	.L29:
 300              	.LVL30:
  26:.././simpleserial/simpleserial.c **** 			crc = crc & 0x80 ? (crc << 1) ^ CW_CRC: crc << 1;
 301              		.loc 1 26 22 is_stmt 1 view .LVU101
  26:.././simpleserial/simpleserial.c **** 			crc = crc & 0x80 ? (crc << 1) ^ CW_CRC: crc << 1;
 302              		.loc 1 26 15 view .LVU102
  27:.././simpleserial/simpleserial.c **** 		}
 303              		.loc 1 27 4 view .LVU103
  27:.././simpleserial/simpleserial.c **** 		}
 304              		.loc 1 27 8 is_stmt 0 view .LVU104
 305 00c2 002A     		cmp	r2, #0
 306 00c4 00DA     		bge	.LCB280
 307 00c6 9EE0     		b	.L80	@long jump
 308              	.LCB280:
 309 00c8 5A00     		lsls	r2, r3, #1
 310 00ca D3B2     		uxtb	r3, r2
 311              	.LVL31:
  27:.././simpleserial/simpleserial.c **** 		}
 312              		.loc 1 27 21 view .LVU105
 313 00cc 52B2     		sxtb	r2, r2
 314              	.L31:
 315              	.LVL32:
  26:.././simpleserial/simpleserial.c **** 			crc = crc & 0x80 ? (crc << 1) ^ CW_CRC: crc << 1;
 316              		.loc 1 26 22 is_stmt 1 view .LVU106
  26:.././simpleserial/simpleserial.c **** 			crc = crc & 0x80 ? (crc << 1) ^ CW_CRC: crc << 1;
 317              		.loc 1 26 15 view .LVU107
  27:.././simpleserial/simpleserial.c **** 		}
 318              		.loc 1 27 4 view .LVU108
  27:.././simpleserial/simpleserial.c **** 		}
 319              		.loc 1 27 28 is_stmt 0 view .LVU109
 320 00ce 5B00     		lsls	r3, r3, #1
 321              	.LVL33:
  27:.././simpleserial/simpleserial.c **** 		}
 322              		.loc 1 27 8 view .LVU110
 323 00d0 002A     		cmp	r2, #0
 324 00d2 00DA     		bge	.LCB296
 325 00d4 93E0     		b	.L81	@long jump
 326              	.LCB296:
 327 00d6 DBB2     		uxtb	r3, r3
 328              	.L33:
 329              	.LVL34:
  24:.././simpleserial/simpleserial.c **** 		crc ^= *buf++;
 330              		.loc 1 24 8 is_stmt 1 view .LVU111
  25:.././simpleserial/simpleserial.c **** 		for (k = 0; k < 8; k++) {
 331              		.loc 1 25 3 view .LVU112
  25:.././simpleserial/simpleserial.c **** 		for (k = 0; k < 8; k++) {
 332              		.loc 1 25 7 is_stmt 0 view .LVU113
 333 00d8 4B40     		eors	r3, r1
 334              	.LVL35:
  26:.././simpleserial/simpleserial.c **** 			crc = crc & 0x80 ? (crc << 1) ^ CW_CRC: crc << 1;
 335              		.loc 1 26 3 is_stmt 1 view .LVU114
  26:.././simpleserial/simpleserial.c **** 			crc = crc & 0x80 ? (crc << 1) ^ CW_CRC: crc << 1;
 336              		.loc 1 26 15 view .LVU115
  27:.././simpleserial/simpleserial.c **** 		}
 337              		.loc 1 27 4 view .LVU116
  27:.././simpleserial/simpleserial.c **** 		}
 338              		.loc 1 27 8 is_stmt 0 view .LVU117
 339 00da 5AB2     		sxtb	r2, r3
  27:.././simpleserial/simpleserial.c **** 		}
 340              		.loc 1 27 28 view .LVU118
 341 00dc 5B00     		lsls	r3, r3, #1
 342              	.LVL36:
  27:.././simpleserial/simpleserial.c **** 		}
 343              		.loc 1 27 8 view .LVU119
 344 00de 002A     		cmp	r2, #0
 345 00e0 00DA     		bge	.LCB321
 346 00e2 87E0     		b	.L34	@long jump
 347              	.LCB321:
 348 00e4 DAB2     		uxtb	r2, r3
 349              	.LVL37:
  27:.././simpleserial/simpleserial.c **** 		}
 350              		.loc 1 27 21 view .LVU120
 351 00e6 5CB2     		sxtb	r4, r3
 352              	.L35:
 353              	.LVL38:
  26:.././simpleserial/simpleserial.c **** 			crc = crc & 0x80 ? (crc << 1) ^ CW_CRC: crc << 1;
 354              		.loc 1 26 22 is_stmt 1 view .LVU121
  26:.././simpleserial/simpleserial.c **** 			crc = crc & 0x80 ? (crc << 1) ^ CW_CRC: crc << 1;
 355              		.loc 1 26 15 view .LVU122
  27:.././simpleserial/simpleserial.c **** 		}
 356              		.loc 1 27 4 view .LVU123
  27:.././simpleserial/simpleserial.c **** 		}
 357              		.loc 1 27 8 is_stmt 0 view .LVU124
 358 00e8 002C     		cmp	r4, #0
 359 00ea 00DA     		bge	.LCB334
 360 00ec 7CE0     		b	.L36	@long jump
 361              	.LCB334:
 362 00ee 5200     		lsls	r2, r2, #1
 363              	.LVL39:
  27:.././simpleserial/simpleserial.c **** 		}
 364              		.loc 1 27 8 view .LVU125
 365 00f0 D3B2     		uxtb	r3, r2
  27:.././simpleserial/simpleserial.c **** 		}
 366              		.loc 1 27 21 view .LVU126
 367 00f2 52B2     		sxtb	r2, r2
 368              	.L37:
 369              	.LVL40:
  26:.././simpleserial/simpleserial.c **** 			crc = crc & 0x80 ? (crc << 1) ^ CW_CRC: crc << 1;
 370              		.loc 1 26 22 is_stmt 1 view .LVU127
  26:.././simpleserial/simpleserial.c **** 			crc = crc & 0x80 ? (crc << 1) ^ CW_CRC: crc << 1;
 371              		.loc 1 26 15 view .LVU128
  27:.././simpleserial/simpleserial.c **** 		}
 372              		.loc 1 27 4 view .LVU129
  27:.././simpleserial/simpleserial.c **** 		}
 373              		.loc 1 27 8 is_stmt 0 view .LVU130
 374 00f4 002A     		cmp	r2, #0
 375 00f6 00DA     		bge	.LCB348
 376 00f8 70E0     		b	.L38	@long jump
 377              	.LCB348:
 378 00fa 5A00     		lsls	r2, r3, #1
 379 00fc D3B2     		uxtb	r3, r2
 380              	.LVL41:
  27:.././simpleserial/simpleserial.c **** 		}
 381              		.loc 1 27 21 view .LVU131
 382 00fe 52B2     		sxtb	r2, r2
 383              	.L39:
 384              	.LVL42:
  26:.././simpleserial/simpleserial.c **** 			crc = crc & 0x80 ? (crc << 1) ^ CW_CRC: crc << 1;
 385              		.loc 1 26 22 is_stmt 1 view .LVU132
  26:.././simpleserial/simpleserial.c **** 			crc = crc & 0x80 ? (crc << 1) ^ CW_CRC: crc << 1;
 386              		.loc 1 26 15 view .LVU133
  27:.././simpleserial/simpleserial.c **** 		}
 387              		.loc 1 27 4 view .LVU134
  27:.././simpleserial/simpleserial.c **** 		}
 388              		.loc 1 27 8 is_stmt 0 view .LVU135
 389 0100 002A     		cmp	r2, #0
 390 0102 65DB     		blt	.L40
 391 0104 5A00     		lsls	r2, r3, #1
 392 0106 D3B2     		uxtb	r3, r2
 393              	.LVL43:
  27:.././simpleserial/simpleserial.c **** 		}
 394              		.loc 1 27 21 view .LVU136
 395 0108 52B2     		sxtb	r2, r2
 396              	.L41:
 397              	.LVL44:
  26:.././simpleserial/simpleserial.c **** 			crc = crc & 0x80 ? (crc << 1) ^ CW_CRC: crc << 1;
 398              		.loc 1 26 22 is_stmt 1 view .LVU137
  26:.././simpleserial/simpleserial.c **** 			crc = crc & 0x80 ? (crc << 1) ^ CW_CRC: crc << 1;
 399              		.loc 1 26 15 view .LVU138
  27:.././simpleserial/simpleserial.c **** 		}
 400              		.loc 1 27 4 view .LVU139
  27:.././simpleserial/simpleserial.c **** 		}
 401              		.loc 1 27 8 is_stmt 0 view .LVU140
 402 010a 002A     		cmp	r2, #0
 403 010c 5ADB     		blt	.L42
 404 010e 5A00     		lsls	r2, r3, #1
 405 0110 D3B2     		uxtb	r3, r2
 406              	.LVL45:
  27:.././simpleserial/simpleserial.c **** 		}
 407              		.loc 1 27 21 view .LVU141
 408 0112 52B2     		sxtb	r2, r2
 409              	.L43:
 410              	.LVL46:
  26:.././simpleserial/simpleserial.c **** 			crc = crc & 0x80 ? (crc << 1) ^ CW_CRC: crc << 1;
 411              		.loc 1 26 22 is_stmt 1 view .LVU142
  26:.././simpleserial/simpleserial.c **** 			crc = crc & 0x80 ? (crc << 1) ^ CW_CRC: crc << 1;
 412              		.loc 1 26 15 view .LVU143
  27:.././simpleserial/simpleserial.c **** 		}
 413              		.loc 1 27 4 view .LVU144
  27:.././simpleserial/simpleserial.c **** 		}
 414              		.loc 1 27 8 is_stmt 0 view .LVU145
 415 0114 002A     		cmp	r2, #0
 416 0116 4FDB     		blt	.L44
 417 0118 5A00     		lsls	r2, r3, #1
 418 011a D3B2     		uxtb	r3, r2
 419              	.LVL47:
  27:.././simpleserial/simpleserial.c **** 		}
 420              		.loc 1 27 21 view .LVU146
 421 011c 52B2     		sxtb	r2, r2
 422              	.L45:
 423              	.LVL48:
  26:.././simpleserial/simpleserial.c **** 			crc = crc & 0x80 ? (crc << 1) ^ CW_CRC: crc << 1;
 424              		.loc 1 26 22 is_stmt 1 view .LVU147
  26:.././simpleserial/simpleserial.c **** 			crc = crc & 0x80 ? (crc << 1) ^ CW_CRC: crc << 1;
 425              		.loc 1 26 15 view .LVU148
  27:.././simpleserial/simpleserial.c **** 		}
 426              		.loc 1 27 4 view .LVU149
  27:.././simpleserial/simpleserial.c **** 		}
 427              		.loc 1 27 8 is_stmt 0 view .LVU150
 428 011e 002A     		cmp	r2, #0
 429 0120 44DB     		blt	.L46
 430 0122 5A00     		lsls	r2, r3, #1
 431 0124 D3B2     		uxtb	r3, r2
 432              	.LVL49:
  27:.././simpleserial/simpleserial.c **** 		}
 433              		.loc 1 27 21 view .LVU151
 434 0126 52B2     		sxtb	r2, r2
 435              	.L47:
 436              	.LVL50:
  26:.././simpleserial/simpleserial.c **** 			crc = crc & 0x80 ? (crc << 1) ^ CW_CRC: crc << 1;
 437              		.loc 1 26 22 is_stmt 1 view .LVU152
  26:.././simpleserial/simpleserial.c **** 			crc = crc & 0x80 ? (crc << 1) ^ CW_CRC: crc << 1;
 438              		.loc 1 26 15 view .LVU153
  27:.././simpleserial/simpleserial.c **** 		}
 439              		.loc 1 27 4 view .LVU154
  27:.././simpleserial/simpleserial.c **** 		}
 440              		.loc 1 27 28 is_stmt 0 view .LVU155
 441 0128 5B00     		lsls	r3, r3, #1
 442              	.LVL51:
  27:.././simpleserial/simpleserial.c **** 		}
 443              		.loc 1 27 8 view .LVU156
 444 012a 002A     		cmp	r2, #0
 445 012c 01DA     		bge	.L64
  27:.././simpleserial/simpleserial.c **** 		}
 446              		.loc 1 27 34 view .LVU157
 447 012e 4D22     		movs	r2, #77
 448 0130 5340     		eors	r3, r2
 449              	.L64:
 450              	.LBE21:
 451              	.LBE24:
 452              		.loc 1 240 18 view .LVU158
 453 0132 6A46     		mov	r2, sp
 454              	.LBB25:
 455              	.LBB22:
  27:.././simpleserial/simpleserial.c **** 		}
 456              		.loc 1 27 8 view .LVU159
 457 0134 DBB2     		uxtb	r3, r3
 458              	.LVL52:
  24:.././simpleserial/simpleserial.c **** 		crc ^= *buf++;
 459              		.loc 1 24 8 is_stmt 1 view .LVU160
  30:.././simpleserial/simpleserial.c **** 
 460              		.loc 1 30 2 view .LVU161
  30:.././simpleserial/simpleserial.c **** 
 461              		.loc 1 30 2 is_stmt 0 view .LVU162
 462              	.LBE22:
 463              	.LBE25:
 464              		.loc 1 240 18 view .LVU163
 465 0136 1371     		strb	r3, [r2, #4]
 241:.././simpleserial/simpleserial.c **** 	data_buf[i + 4] = 0x00;
 466              		.loc 1 241 2 is_stmt 1 view .LVU164
 467              		.loc 1 241 18 is_stmt 0 view .LVU165
 468 0138 0023     		movs	r3, #0
 469 013a 5371     		strb	r3, [r2, #5]
 242:.././simpleserial/simpleserial.c **** 	stuff_data(data_buf, i + 5);
 470              		.loc 1 242 2 is_stmt 1 view .LVU166
 471              	.LVL53:
 472              	.LBB26:
 473              	.LBI26:
 106:.././simpleserial/simpleserial.c **** {
 474              		.loc 1 106 9 view .LVU167
 475              	.LBB27:
 110:.././simpleserial/simpleserial.c **** 		if (buf[i] == FRAME_BYTE) {
 476              		.loc 1 110 9 view .LVU168
 111:.././simpleserial/simpleserial.c **** 			buf[last] = i - last;
 477              		.loc 1 111 3 view .LVU169
 111:.././simpleserial/simpleserial.c **** 			buf[last] = i - last;
 478              		.loc 1 111 6 is_stmt 0 view .LVU170
 479 013c 0028     		cmp	r0, #0
 480 013e 01D1     		bne	.L50
 112:.././simpleserial/simpleserial.c **** 			last = i;
 481              		.loc 1 112 4 is_stmt 1 view .LVU171
 112:.././simpleserial/simpleserial.c **** 			last = i;
 482              		.loc 1 112 14 is_stmt 0 view .LVU172
 483 0140 0133     		adds	r3, r3, #1
 484 0142 1370     		strb	r3, [r2]
 113:.././simpleserial/simpleserial.c **** 		}
 485              		.loc 1 113 4 is_stmt 1 view .LVU173
 486              	.LVL54:
 487              	.L50:
 110:.././simpleserial/simpleserial.c **** 		if (buf[i] == FRAME_BYTE) {
 488              		.loc 1 110 18 view .LVU174
 110:.././simpleserial/simpleserial.c **** 		if (buf[i] == FRAME_BYTE) {
 489              		.loc 1 110 9 view .LVU175
 111:.././simpleserial/simpleserial.c **** 			buf[last] = i - last;
 490              		.loc 1 111 3 view .LVU176
 110:.././simpleserial/simpleserial.c **** 		if (buf[i] == FRAME_BYTE) {
 491              		.loc 1 110 18 view .LVU177
 110:.././simpleserial/simpleserial.c **** 		if (buf[i] == FRAME_BYTE) {
 492              		.loc 1 110 9 view .LVU178
 111:.././simpleserial/simpleserial.c **** 			buf[last] = i - last;
 493              		.loc 1 111 3 view .LVU179
 111:.././simpleserial/simpleserial.c **** 			buf[last] = i - last;
 494              		.loc 1 111 6 is_stmt 0 view .LVU180
 495 0144 0029     		cmp	r1, #0
 496 0146 19D1     		bne	.L51
 112:.././simpleserial/simpleserial.c **** 			last = i;
 497              		.loc 1 112 4 is_stmt 1 view .LVU181
 112:.././simpleserial/simpleserial.c **** 			last = i;
 498              		.loc 1 112 18 is_stmt 0 view .LVU182
 499 0148 0321     		movs	r1, #3
 112:.././simpleserial/simpleserial.c **** 			last = i;
 500              		.loc 1 112 14 view .LVU183
 501 014a 40AA     		add	r2, sp, #256
 502              	.LVL55:
 112:.././simpleserial/simpleserial.c **** 			last = i;
 503              		.loc 1 112 14 view .LVU184
 504 014c D218     		adds	r2, r2, r3
 505 014e 013A     		subs	r2, r2, #1
 506 0150 FF3A     		subs	r2, r2, #255
 112:.././simpleserial/simpleserial.c **** 			last = i;
 507              		.loc 1 112 18 view .LVU185
 508 0152 CB1A     		subs	r3, r1, r3
 509              	.LVL56:
 112:.././simpleserial/simpleserial.c **** 			last = i;
 510              		.loc 1 112 14 view .LVU186
 511 0154 1370     		strb	r3, [r2]
 113:.././simpleserial/simpleserial.c **** 		}
 512              		.loc 1 113 4 is_stmt 1 view .LVU187
 513              	.LVL57:
 110:.././simpleserial/simpleserial.c **** 		if (buf[i] == FRAME_BYTE) {
 514              		.loc 1 110 18 view .LVU188
 110:.././simpleserial/simpleserial.c **** 		if (buf[i] == FRAME_BYTE) {
 515              		.loc 1 110 9 view .LVU189
 111:.././simpleserial/simpleserial.c **** 			buf[last] = i - last;
 516              		.loc 1 111 3 view .LVU190
 111:.././simpleserial/simpleserial.c **** 			buf[last] = i - last;
 517              		.loc 1 111 6 is_stmt 0 view .LVU191
 518 0156 6B46     		mov	r3, sp
 519 0158 1A79     		ldrb	r2, [r3, #4]
 110:.././simpleserial/simpleserial.c **** 		if (buf[i] == FRAME_BYTE) {
 520              		.loc 1 110 19 view .LVU192
 521 015a 0323     		movs	r3, #3
 111:.././simpleserial/simpleserial.c **** 			buf[last] = i - last;
 522              		.loc 1 111 6 view .LVU193
 523 015c 002A     		cmp	r2, #0
 524 015e 11D0     		beq	.L55
 525              	.LVL58:
 110:.././simpleserial/simpleserial.c **** 		if (buf[i] == FRAME_BYTE) {
 526              		.loc 1 110 18 is_stmt 1 view .LVU194
 110:.././simpleserial/simpleserial.c **** 		if (buf[i] == FRAME_BYTE) {
 527              		.loc 1 110 9 view .LVU195
 111:.././simpleserial/simpleserial.c **** 			buf[last] = i - last;
 528              		.loc 1 111 3 view .LVU196
 111:.././simpleserial/simpleserial.c **** 			buf[last] = i - last;
 529              		.loc 1 111 6 is_stmt 0 view .LVU197
 530 0160 6A46     		mov	r2, sp
 531 0162 5279     		ldrb	r2, [r2, #5]
 532 0164 002A     		cmp	r2, #0
 533 0166 19D0     		beq	.L56
 534              	.LVL59:
 535              	.L53:
 110:.././simpleserial/simpleserial.c **** 		if (buf[i] == FRAME_BYTE) {
 536              		.loc 1 110 18 is_stmt 1 view .LVU198
 110:.././simpleserial/simpleserial.c **** 		if (buf[i] == FRAME_BYTE) {
 537              		.loc 1 110 9 view .LVU199
 538 0168 6C46     		mov	r4, sp
 539 016a A51D     		adds	r5, r4, #6
 540              	.LVL60:
 541              	.L54:
 110:.././simpleserial/simpleserial.c **** 		if (buf[i] == FRAME_BYTE) {
 542              		.loc 1 110 9 is_stmt 0 view .LVU200
 543              	.LBE27:
 544              	.LBE26:
 545              	.LBB29:
 243:.././simpleserial/simpleserial.c **** 	for (int i = 0; i < size + 5; i++) {
 244:.././simpleserial/simpleserial.c **** 		putch(data_buf[i]);
 546              		.loc 1 244 3 is_stmt 1 view .LVU201
 547 016c 2078     		ldrb	r0, [r4]
 243:.././simpleserial/simpleserial.c **** 	for (int i = 0; i < size + 5; i++) {
 548              		.loc 1 243 2 is_stmt 0 view .LVU202
 549 016e 0134     		adds	r4, r4, #1
 550              	.LVL61:
 551              		.loc 1 244 3 view .LVU203
 552 0170 FFF7FEFF 		bl	putch
 553              	.LVL62:
 243:.././simpleserial/simpleserial.c **** 	for (int i = 0; i < size + 5; i++) {
 554              		.loc 1 243 32 is_stmt 1 view .LVU204
 243:.././simpleserial/simpleserial.c **** 	for (int i = 0; i < size + 5; i++) {
 555              		.loc 1 243 18 view .LVU205
 243:.././simpleserial/simpleserial.c **** 	for (int i = 0; i < size + 5; i++) {
 556              		.loc 1 243 2 is_stmt 0 view .LVU206
 557 0174 AC42     		cmp	r4, r5
 558 0176 F9D1     		bne	.L54
 559              	.LBE29:
 245:.././simpleserial/simpleserial.c **** 	}
 246:.././simpleserial/simpleserial.c **** }
 560              		.loc 1 246 1 view .LVU207
 561 0178 41B0     		add	sp, sp, #260
 562              		@ sp needed
 563 017a 30BD     		pop	{r4, r5, pc}
 564              	.LVL63:
 565              	.L51:
 566              	.LBB30:
 567              	.LBB28:
 110:.././simpleserial/simpleserial.c **** 		if (buf[i] == FRAME_BYTE) {
 568              		.loc 1 110 18 is_stmt 1 view .LVU208
 110:.././simpleserial/simpleserial.c **** 		if (buf[i] == FRAME_BYTE) {
 569              		.loc 1 110 9 view .LVU209
 111:.././simpleserial/simpleserial.c **** 			buf[last] = i - last;
 570              		.loc 1 111 3 view .LVU210
 111:.././simpleserial/simpleserial.c **** 			buf[last] = i - last;
 571              		.loc 1 111 6 is_stmt 0 view .LVU211
 572 017c 6A46     		mov	r2, sp
 111:.././simpleserial/simpleserial.c **** 			buf[last] = i - last;
 573              		.loc 1 111 6 view .LVU212
 574 017e 1279     		ldrb	r2, [r2, #4]
 575              	.LVL64:
 111:.././simpleserial/simpleserial.c **** 			buf[last] = i - last;
 576              		.loc 1 111 6 view .LVU213
 577 0180 002A     		cmp	r2, #0
 578 0182 0BD1     		bne	.L56
 579              	.LVL65:
 580              	.L55:
 112:.././simpleserial/simpleserial.c **** 			last = i;
 581              		.loc 1 112 4 is_stmt 1 view .LVU214
 112:.././simpleserial/simpleserial.c **** 			last = i;
 582              		.loc 1 112 18 is_stmt 0 view .LVU215
 583 0184 0421     		movs	r1, #4
 112:.././simpleserial/simpleserial.c **** 			last = i;
 584              		.loc 1 112 14 view .LVU216
 585 0186 40AA     		add	r2, sp, #256
 586 0188 D218     		adds	r2, r2, r3
 587 018a 013A     		subs	r2, r2, #1
 588 018c FF3A     		subs	r2, r2, #255
 112:.././simpleserial/simpleserial.c **** 			last = i;
 589              		.loc 1 112 18 view .LVU217
 590 018e CB1A     		subs	r3, r1, r3
 112:.././simpleserial/simpleserial.c **** 			last = i;
 591              		.loc 1 112 14 view .LVU218
 592 0190 1370     		strb	r3, [r2]
 113:.././simpleserial/simpleserial.c **** 		}
 593              		.loc 1 113 4 is_stmt 1 view .LVU219
 594              	.LVL66:
 111:.././simpleserial/simpleserial.c **** 			buf[last] = i - last;
 595              		.loc 1 111 6 is_stmt 0 view .LVU220
 596 0192 6A46     		mov	r2, sp
 597 0194 5279     		ldrb	r2, [r2, #5]
 110:.././simpleserial/simpleserial.c **** 		if (buf[i] == FRAME_BYTE) {
 598              		.loc 1 110 19 view .LVU221
 599 0196 0423     		movs	r3, #4
 600              	.LVL67:
 110:.././simpleserial/simpleserial.c **** 		if (buf[i] == FRAME_BYTE) {
 601              		.loc 1 110 18 is_stmt 1 view .LVU222
 110:.././simpleserial/simpleserial.c **** 		if (buf[i] == FRAME_BYTE) {
 602              		.loc 1 110 9 view .LVU223
 111:.././simpleserial/simpleserial.c **** 			buf[last] = i - last;
 603              		.loc 1 111 3 view .LVU224
 111:.././simpleserial/simpleserial.c **** 			buf[last] = i - last;
 604              		.loc 1 111 6 is_stmt 0 view .LVU225
 605 0198 002A     		cmp	r2, #0
 606 019a E5D1     		bne	.L53
 607              	.LVL68:
 608              	.L56:
 112:.././simpleserial/simpleserial.c **** 			last = i;
 609              		.loc 1 112 4 is_stmt 1 view .LVU226
 112:.././simpleserial/simpleserial.c **** 			last = i;
 610              		.loc 1 112 18 is_stmt 0 view .LVU227
 611 019c 0521     		movs	r1, #5
 112:.././simpleserial/simpleserial.c **** 			last = i;
 612              		.loc 1 112 14 view .LVU228
 613 019e 40AA     		add	r2, sp, #256
 614 01a0 D218     		adds	r2, r2, r3
 615 01a2 013A     		subs	r2, r2, #1
 616 01a4 FF3A     		subs	r2, r2, #255
 112:.././simpleserial/simpleserial.c **** 			last = i;
 617              		.loc 1 112 18 view .LVU229
 618 01a6 CB1A     		subs	r3, r1, r3
 619              	.LVL69:
 112:.././simpleserial/simpleserial.c **** 			last = i;
 620              		.loc 1 112 14 view .LVU230
 621 01a8 1370     		strb	r3, [r2]
 113:.././simpleserial/simpleserial.c **** 		}
 622              		.loc 1 113 4 is_stmt 1 view .LVU231
 623              	.LVL70:
 113:.././simpleserial/simpleserial.c **** 		}
 624              		.loc 1 113 4 is_stmt 0 view .LVU232
 625 01aa DDE7     		b	.L53
 626              	.LVL71:
 627              	.L46:
 113:.././simpleserial/simpleserial.c **** 		}
 628              		.loc 1 113 4 view .LVU233
 629              	.LBE28:
 630              	.LBE30:
 631              	.LBB31:
 632              	.LBB23:
  27:.././simpleserial/simpleserial.c **** 		}
 633              		.loc 1 27 34 view .LVU234
 634 01ac 4D22     		movs	r2, #77
  27:.././simpleserial/simpleserial.c **** 		}
 635              		.loc 1 27 28 view .LVU235
 636 01ae 5B00     		lsls	r3, r3, #1
 637              	.LVL72:
  27:.././simpleserial/simpleserial.c **** 		}
 638              		.loc 1 27 34 view .LVU236
 639 01b0 5340     		eors	r3, r2
 640 01b2 5AB2     		sxtb	r2, r3
  27:.././simpleserial/simpleserial.c **** 		}
 641              		.loc 1 27 8 view .LVU237
 642 01b4 DBB2     		uxtb	r3, r3
 643 01b6 B7E7     		b	.L47
 644              	.LVL73:
 645              	.L44:
  27:.././simpleserial/simpleserial.c **** 		}
 646              		.loc 1 27 34 view .LVU238
 647 01b8 4D22     		movs	r2, #77
  27:.././simpleserial/simpleserial.c **** 		}
 648              		.loc 1 27 28 view .LVU239
 649 01ba 5B00     		lsls	r3, r3, #1
 650              	.LVL74:
  27:.././simpleserial/simpleserial.c **** 		}
 651              		.loc 1 27 34 view .LVU240
 652 01bc 5340     		eors	r3, r2
 653 01be 5AB2     		sxtb	r2, r3
  27:.././simpleserial/simpleserial.c **** 		}
 654              		.loc 1 27 8 view .LVU241
 655 01c0 DBB2     		uxtb	r3, r3
 656 01c2 ACE7     		b	.L45
 657              	.LVL75:
 658              	.L42:
  27:.././simpleserial/simpleserial.c **** 		}
 659              		.loc 1 27 34 view .LVU242
 660 01c4 4D22     		movs	r2, #77
  27:.././simpleserial/simpleserial.c **** 		}
 661              		.loc 1 27 28 view .LVU243
 662 01c6 5B00     		lsls	r3, r3, #1
 663              	.LVL76:
  27:.././simpleserial/simpleserial.c **** 		}
 664              		.loc 1 27 34 view .LVU244
 665 01c8 5340     		eors	r3, r2
 666 01ca 5AB2     		sxtb	r2, r3
  27:.././simpleserial/simpleserial.c **** 		}
 667              		.loc 1 27 8 view .LVU245
 668 01cc DBB2     		uxtb	r3, r3
 669 01ce A1E7     		b	.L43
 670              	.LVL77:
 671              	.L40:
  27:.././simpleserial/simpleserial.c **** 		}
 672              		.loc 1 27 34 view .LVU246
 673 01d0 4D22     		movs	r2, #77
  27:.././simpleserial/simpleserial.c **** 		}
 674              		.loc 1 27 28 view .LVU247
 675 01d2 5B00     		lsls	r3, r3, #1
 676              	.LVL78:
  27:.././simpleserial/simpleserial.c **** 		}
 677              		.loc 1 27 34 view .LVU248
 678 01d4 5340     		eors	r3, r2
 679 01d6 5AB2     		sxtb	r2, r3
  27:.././simpleserial/simpleserial.c **** 		}
 680              		.loc 1 27 8 view .LVU249
 681 01d8 DBB2     		uxtb	r3, r3
 682 01da 96E7     		b	.L41
 683              	.LVL79:
 684              	.L38:
  27:.././simpleserial/simpleserial.c **** 		}
 685              		.loc 1 27 34 view .LVU250
 686 01dc 4D22     		movs	r2, #77
  27:.././simpleserial/simpleserial.c **** 		}
 687              		.loc 1 27 28 view .LVU251
 688 01de 5B00     		lsls	r3, r3, #1
 689              	.LVL80:
  27:.././simpleserial/simpleserial.c **** 		}
 690              		.loc 1 27 34 view .LVU252
 691 01e0 5340     		eors	r3, r2
 692 01e2 5AB2     		sxtb	r2, r3
  27:.././simpleserial/simpleserial.c **** 		}
 693              		.loc 1 27 8 view .LVU253
 694 01e4 DBB2     		uxtb	r3, r3
 695 01e6 8BE7     		b	.L39
 696              	.LVL81:
 697              	.L36:
  27:.././simpleserial/simpleserial.c **** 		}
 698              		.loc 1 27 28 view .LVU254
 699 01e8 5300     		lsls	r3, r2, #1
  27:.././simpleserial/simpleserial.c **** 		}
 700              		.loc 1 27 34 view .LVU255
 701 01ea 4D22     		movs	r2, #77
 702              	.LVL82:
  27:.././simpleserial/simpleserial.c **** 		}
 703              		.loc 1 27 34 view .LVU256
 704 01ec 5340     		eors	r3, r2
 705 01ee 5AB2     		sxtb	r2, r3
  27:.././simpleserial/simpleserial.c **** 		}
 706              		.loc 1 27 8 view .LVU257
 707 01f0 DBB2     		uxtb	r3, r3
 708 01f2 7FE7     		b	.L37
 709              	.LVL83:
 710              	.L34:
  27:.././simpleserial/simpleserial.c **** 		}
 711              		.loc 1 27 34 view .LVU258
 712 01f4 4D22     		movs	r2, #77
 713              	.LVL84:
  27:.././simpleserial/simpleserial.c **** 		}
 714              		.loc 1 27 34 view .LVU259
 715 01f6 5A40     		eors	r2, r3
 716 01f8 54B2     		sxtb	r4, r2
  27:.././simpleserial/simpleserial.c **** 		}
 717              		.loc 1 27 8 view .LVU260
 718 01fa D2B2     		uxtb	r2, r2
 719 01fc 74E7     		b	.L35
 720              	.LVL85:
 721              	.L81:
  27:.././simpleserial/simpleserial.c **** 		}
 722              		.loc 1 27 34 view .LVU261
 723 01fe 4D22     		movs	r2, #77
 724 0200 5340     		eors	r3, r2
  27:.././simpleserial/simpleserial.c **** 		}
 725              		.loc 1 27 8 view .LVU262
 726 0202 DBB2     		uxtb	r3, r3
 727 0204 68E7     		b	.L33
 728              	.LVL86:
 729              	.L80:
  27:.././simpleserial/simpleserial.c **** 		}
 730              		.loc 1 27 34 view .LVU263
 731 0206 4D22     		movs	r2, #77
  27:.././simpleserial/simpleserial.c **** 		}
 732              		.loc 1 27 28 view .LVU264
 733 0208 5B00     		lsls	r3, r3, #1
 734              	.LVL87:
  27:.././simpleserial/simpleserial.c **** 		}
 735              		.loc 1 27 34 view .LVU265
 736 020a 5340     		eors	r3, r2
 737 020c 5AB2     		sxtb	r2, r3
  27:.././simpleserial/simpleserial.c **** 		}
 738              		.loc 1 27 8 view .LVU266
 739 020e DBB2     		uxtb	r3, r3
 740 0210 5DE7     		b	.L31
 741              	.LVL88:
 742              	.L79:
  27:.././simpleserial/simpleserial.c **** 		}
 743              		.loc 1 27 34 view .LVU267
 744 0212 4D22     		movs	r2, #77
  27:.././simpleserial/simpleserial.c **** 		}
 745              		.loc 1 27 28 view .LVU268
 746 0214 5B00     		lsls	r3, r3, #1
 747              	.LVL89:
  27:.././simpleserial/simpleserial.c **** 		}
 748              		.loc 1 27 34 view .LVU269
 749 0216 5340     		eors	r3, r2
 750 0218 5AB2     		sxtb	r2, r3
  27:.././simpleserial/simpleserial.c **** 		}
 751              		.loc 1 27 8 view .LVU270
 752 021a DBB2     		uxtb	r3, r3
 753 021c 51E7     		b	.L29
 754              	.LVL90:
 755              	.L78:
  27:.././simpleserial/simpleserial.c **** 		}
 756              		.loc 1 27 34 view .LVU271
 757 021e 4D22     		movs	r2, #77
  27:.././simpleserial/simpleserial.c **** 		}
 758              		.loc 1 27 28 view .LVU272
 759 0220 5B00     		lsls	r3, r3, #1
 760              	.LVL91:
  27:.././simpleserial/simpleserial.c **** 		}
 761              		.loc 1 27 34 view .LVU273
 762 0222 5340     		eors	r3, r2
 763 0224 5AB2     		sxtb	r2, r3
  27:.././simpleserial/simpleserial.c **** 		}
 764              		.loc 1 27 8 view .LVU274
 765 0226 DBB2     		uxtb	r3, r3
 766 0228 45E7     		b	.L27
 767              	.LVL92:
 768              	.L77:
  27:.././simpleserial/simpleserial.c **** 		}
 769              		.loc 1 27 34 view .LVU275
 770 022a 4D22     		movs	r2, #77
  27:.././simpleserial/simpleserial.c **** 		}
 771              		.loc 1 27 28 view .LVU276
 772 022c 5B00     		lsls	r3, r3, #1
 773              	.LVL93:
  27:.././simpleserial/simpleserial.c **** 		}
 774              		.loc 1 27 34 view .LVU277
 775 022e 5340     		eors	r3, r2
 776 0230 5AB2     		sxtb	r2, r3
  27:.././simpleserial/simpleserial.c **** 		}
 777              		.loc 1 27 8 view .LVU278
 778 0232 DBB2     		uxtb	r3, r3
 779 0234 39E7     		b	.L25
 780              	.LVL94:
 781              	.L76:
  27:.././simpleserial/simpleserial.c **** 		}
 782              		.loc 1 27 34 view .LVU279
 783 0236 4D22     		movs	r2, #77
  27:.././simpleserial/simpleserial.c **** 		}
 784              		.loc 1 27 28 view .LVU280
 785 0238 5B00     		lsls	r3, r3, #1
 786              	.LVL95:
  27:.././simpleserial/simpleserial.c **** 		}
 787              		.loc 1 27 34 view .LVU281
 788 023a 5340     		eors	r3, r2
 789 023c 5AB2     		sxtb	r2, r3
  27:.././simpleserial/simpleserial.c **** 		}
 790              		.loc 1 27 8 view .LVU282
 791 023e DBB2     		uxtb	r3, r3
 792 0240 2DE7     		b	.L23
 793              	.LVL96:
 794              	.L75:
  27:.././simpleserial/simpleserial.c **** 		}
 795              		.loc 1 27 34 view .LVU283
 796 0242 4D22     		movs	r2, #77
  27:.././simpleserial/simpleserial.c **** 		}
 797              		.loc 1 27 28 view .LVU284
 798 0244 6300     		lsls	r3, r4, #1
  27:.././simpleserial/simpleserial.c **** 		}
 799              		.loc 1 27 34 view .LVU285
 800 0246 5340     		eors	r3, r2
 801 0248 5AB2     		sxtb	r2, r3
  27:.././simpleserial/simpleserial.c **** 		}
 802              		.loc 1 27 8 view .LVU286
 803 024a DBB2     		uxtb	r3, r3
 804 024c 21E7     		b	.L21
 805              	.LVL97:
 806              	.L74:
  27:.././simpleserial/simpleserial.c **** 		}
 807              		.loc 1 27 34 view .LVU287
 808 024e 4D24     		movs	r4, #77
 809 0250 5C40     		eors	r4, r3
 810 0252 62B2     		sxtb	r2, r4
 811              	.LVL98:
  27:.././simpleserial/simpleserial.c **** 		}
 812              		.loc 1 27 8 view .LVU288
 813 0254 E4B2     		uxtb	r4, r4
 814 0256 16E7     		b	.L19
 815              	.LVL99:
 816              	.L73:
  27:.././simpleserial/simpleserial.c **** 		}
 817              		.loc 1 27 34 view .LVU289
 818 0258 4D22     		movs	r2, #77
 819 025a 5340     		eors	r3, r2
  27:.././simpleserial/simpleserial.c **** 		}
 820              		.loc 1 27 8 view .LVU290
 821 025c DBB2     		uxtb	r3, r3
 822 025e 09E7     		b	.L17
 823              	.LVL100:
 824              	.L72:
  27:.././simpleserial/simpleserial.c **** 		}
 825              		.loc 1 27 34 view .LVU291
 826 0260 4D22     		movs	r2, #77
  27:.././simpleserial/simpleserial.c **** 		}
 827              		.loc 1 27 28 view .LVU292
 828 0262 5B00     		lsls	r3, r3, #1
 829              	.LVL101:
  27:.././simpleserial/simpleserial.c **** 		}
 830              		.loc 1 27 34 view .LVU293
 831 0264 5340     		eors	r3, r2
 832 0266 5AB2     		sxtb	r2, r3
  27:.././simpleserial/simpleserial.c **** 		}
 833              		.loc 1 27 8 view .LVU294
 834 0268 DBB2     		uxtb	r3, r3
 835 026a FEE6     		b	.L15
 836              	.LVL102:
 837              	.L71:
  27:.././simpleserial/simpleserial.c **** 		}
 838              		.loc 1 27 34 view .LVU295
 839 026c 4D22     		movs	r2, #77
  27:.././simpleserial/simpleserial.c **** 		}
 840              		.loc 1 27 28 view .LVU296
 841 026e 5B00     		lsls	r3, r3, #1
 842              	.LVL103:
  27:.././simpleserial/simpleserial.c **** 		}
 843              		.loc 1 27 34 view .LVU297
 844 0270 5340     		eors	r3, r2
 845 0272 5AB2     		sxtb	r2, r3
  27:.././simpleserial/simpleserial.c **** 		}
 846              		.loc 1 27 8 view .LVU298
 847 0274 DBB2     		uxtb	r3, r3
 848 0276 F2E6     		b	.L13
 849              	.LVL104:
 850              	.L70:
  27:.././simpleserial/simpleserial.c **** 		}
 851              		.loc 1 27 34 view .LVU299
 852 0278 4D22     		movs	r2, #77
  27:.././simpleserial/simpleserial.c **** 		}
 853              		.loc 1 27 28 view .LVU300
 854 027a 5B00     		lsls	r3, r3, #1
 855              	.LVL105:
  27:.././simpleserial/simpleserial.c **** 		}
 856              		.loc 1 27 34 view .LVU301
 857 027c 5340     		eors	r3, r2
 858 027e 5AB2     		sxtb	r2, r3
  27:.././simpleserial/simpleserial.c **** 		}
 859              		.loc 1 27 8 view .LVU302
 860 0280 DBB2     		uxtb	r3, r3
 861 0282 E6E6     		b	.L11
 862              	.LVL106:
 863              	.L69:
  27:.././simpleserial/simpleserial.c **** 		}
 864              		.loc 1 27 34 view .LVU303
 865 0284 4D22     		movs	r2, #77
  27:.././simpleserial/simpleserial.c **** 		}
 866              		.loc 1 27 28 view .LVU304
 867 0286 5B00     		lsls	r3, r3, #1
 868              	.LVL107:
  27:.././simpleserial/simpleserial.c **** 		}
 869              		.loc 1 27 34 view .LVU305
 870 0288 5340     		eors	r3, r2
 871 028a 5AB2     		sxtb	r2, r3
  27:.././simpleserial/simpleserial.c **** 		}
 872              		.loc 1 27 8 view .LVU306
 873 028c DBB2     		uxtb	r3, r3
 874 028e DAE6     		b	.L9
 875              	.LVL108:
 876              	.L68:
  27:.././simpleserial/simpleserial.c **** 		}
 877              		.loc 1 27 34 view .LVU307
 878 0290 4D22     		movs	r2, #77
  27:.././simpleserial/simpleserial.c **** 		}
 879              		.loc 1 27 28 view .LVU308
 880 0292 5B00     		lsls	r3, r3, #1
 881              	.LVL109:
  27:.././simpleserial/simpleserial.c **** 		}
 882              		.loc 1 27 34 view .LVU309
 883 0294 5340     		eors	r3, r2
 884 0296 5AB2     		sxtb	r2, r3
  27:.././simpleserial/simpleserial.c **** 		}
 885              		.loc 1 27 8 view .LVU310
 886 0298 DBB2     		uxtb	r3, r3
 887 029a CEE6     		b	.L7
 888              	.LVL110:
 889              	.L67:
  27:.././simpleserial/simpleserial.c **** 		}
 890              		.loc 1 27 34 view .LVU311
 891 029c 4D22     		movs	r2, #77
  27:.././simpleserial/simpleserial.c **** 		}
 892              		.loc 1 27 28 view .LVU312
 893 029e 5B00     		lsls	r3, r3, #1
 894              	.LVL111:
  27:.././simpleserial/simpleserial.c **** 		}
 895              		.loc 1 27 34 view .LVU313
 896 02a0 5340     		eors	r3, r2
 897 02a2 5AB2     		sxtb	r2, r3
  27:.././simpleserial/simpleserial.c **** 		}
 898              		.loc 1 27 8 view .LVU314
 899 02a4 DBB2     		uxtb	r3, r3
 900 02a6 C2E6     		b	.L5
 901              	.LVL112:
 902              	.L66:
  27:.././simpleserial/simpleserial.c **** 		}
 903              		.loc 1 27 34 view .LVU315
 904 02a8 4D22     		movs	r2, #77
  27:.././simpleserial/simpleserial.c **** 		}
 905              		.loc 1 27 28 view .LVU316
 906 02aa 4300     		lsls	r3, r0, #1
  27:.././simpleserial/simpleserial.c **** 		}
 907              		.loc 1 27 34 view .LVU317
 908 02ac 5340     		eors	r3, r2
 909 02ae 5AB2     		sxtb	r2, r3
  27:.././simpleserial/simpleserial.c **** 		}
 910              		.loc 1 27 8 view .LVU318
 911 02b0 DBB2     		uxtb	r3, r3
 912 02b2 B6E6     		b	.L3
 913              	.LBE23:
 914              	.LBE31:
 915              		.cfi_endproc
 916              	.LFE11:
 918              		.section	.text.check_version,"ax",%progbits
 919              		.align	1
 920              		.p2align 2,,3
 921              		.global	check_version
 922              		.syntax unified
 923              		.code	16
 924              		.thumb_func
 925              		.fpu softvfp
 927              	check_version:
 928              	.LVL113:
 929              	.LFB3:
  88:.././simpleserial/simpleserial.c **** 	uint8_t ver = SS_VER;
 930              		.loc 1 88 1 is_stmt 1 view -0
 931              		.cfi_startproc
 932              		@ args = 0, pretend = 0, frame = 8
 933              		@ frame_needed = 0, uses_anonymous_args = 0
  89:.././simpleserial/simpleserial.c **** 	simpleserial_put('r', 1, &ver);
 934              		.loc 1 89 2 view .LVU320
  88:.././simpleserial/simpleserial.c **** 	uint8_t ver = SS_VER;
 935              		.loc 1 88 1 is_stmt 0 view .LVU321
 936 0000 00B5     		push	{lr}
 937              	.LCFI2:
 938              		.cfi_def_cfa_offset 4
 939              		.cfi_offset 14, -4
 940 0002 83B0     		sub	sp, sp, #12
 941              	.LCFI3:
 942              		.cfi_def_cfa_offset 16
  89:.././simpleserial/simpleserial.c **** 	simpleserial_put('r', 1, &ver);
 943              		.loc 1 89 10 view .LVU322
 944 0004 6B46     		mov	r3, sp
 945              	.LVL114:
  89:.././simpleserial/simpleserial.c **** 	simpleserial_put('r', 1, &ver);
 946              		.loc 1 89 10 view .LVU323
 947 0006 D91D     		adds	r1, r3, #7
 948              	.LVL115:
  89:.././simpleserial/simpleserial.c **** 	simpleserial_put('r', 1, &ver);
 949              		.loc 1 89 10 view .LVU324
 950 0008 0323     		movs	r3, #3
  90:.././simpleserial/simpleserial.c **** 	return SS_ERR_OK;
 951              		.loc 1 90 2 view .LVU325
 952 000a 7220     		movs	r0, #114
 953              	.LVL116:
  89:.././simpleserial/simpleserial.c **** 	simpleserial_put('r', 1, &ver);
 954              		.loc 1 89 10 view .LVU326
 955 000c 0B70     		strb	r3, [r1]
  90:.././simpleserial/simpleserial.c **** 	return SS_ERR_OK;
 956              		.loc 1 90 2 is_stmt 1 view .LVU327
 957 000e FFF7FEFF 		bl	simpleserial_put.constprop.0
 958              	.LVL117:
  91:.././simpleserial/simpleserial.c **** }
 959              		.loc 1 91 2 view .LVU328
  92:.././simpleserial/simpleserial.c **** 
 960              		.loc 1 92 1 is_stmt 0 view .LVU329
 961 0012 0020     		movs	r0, #0
 962 0014 03B0     		add	sp, sp, #12
 963              		@ sp needed
 964 0016 00BD     		pop	{pc}
 965              		.cfi_endproc
 966              	.LFE3:
 968              		.section	.text.ss_crc,"ax",%progbits
 969              		.align	1
 970              		.p2align 2,,3
 971              		.global	ss_crc
 972              		.syntax unified
 973              		.code	16
 974              		.thumb_func
 975              		.fpu softvfp
 977              	ss_crc:
 978              	.LVL118:
 979              	.LFB0:
  21:.././simpleserial/simpleserial.c **** 	unsigned int k = 0;
 980              		.loc 1 21 1 is_stmt 1 view -0
 981              		.cfi_startproc
 982              		@ args = 0, pretend = 0, frame = 0
 983              		@ frame_needed = 0, uses_anonymous_args = 0
  22:.././simpleserial/simpleserial.c **** 	uint8_t crc = 0x00;
 984              		.loc 1 22 2 view .LVU331
  23:.././simpleserial/simpleserial.c **** 	while (len--) {
 985              		.loc 1 23 2 view .LVU332
  24:.././simpleserial/simpleserial.c **** 		crc ^= *buf++;
 986              		.loc 1 24 2 view .LVU333
  24:.././simpleserial/simpleserial.c **** 		crc ^= *buf++;
 987              		.loc 1 24 8 view .LVU334
  21:.././simpleserial/simpleserial.c **** 	unsigned int k = 0;
 988              		.loc 1 21 1 is_stmt 0 view .LVU335
 989 0000 30B5     		push	{r4, r5, lr}
 990              	.LCFI4:
 991              		.cfi_def_cfa_offset 12
 992              		.cfi_offset 4, -12
 993              		.cfi_offset 5, -8
 994              		.cfi_offset 14, -4
  24:.././simpleserial/simpleserial.c **** 		crc ^= *buf++;
 995              		.loc 1 24 8 view .LVU336
 996 0002 0029     		cmp	r1, #0
 997 0004 5CD0     		beq	.L102
 998 0006 0200     		movs	r2, r0
 999 0008 5418     		adds	r4, r2, r1
  23:.././simpleserial/simpleserial.c **** 	while (len--) {
 1000              		.loc 1 23 10 view .LVU337
 1001 000a 0020     		movs	r0, #0
 1002              	.LVL119:
  27:.././simpleserial/simpleserial.c **** 		}
 1003              		.loc 1 27 34 view .LVU338
 1004 000c 4D21     		movs	r1, #77
 1005              	.LVL120:
  24:.././simpleserial/simpleserial.c **** 		crc ^= *buf++;
 1006              		.loc 1 24 8 view .LVU339
 1007 000e E4B2     		uxtb	r4, r4
 1008 0010 28E0     		b	.L101
 1009              	.LVL121:
 1010              	.L105:
  27:.././simpleserial/simpleserial.c **** 		}
 1011              		.loc 1 27 21 view .LVU340
 1012 0012 43B2     		sxtb	r3, r0
 1013              	.LVL122:
  27:.././simpleserial/simpleserial.c **** 		}
 1014              		.loc 1 27 8 view .LVU341
 1015 0014 C5B2     		uxtb	r5, r0
 1016              	.LVL123:
  26:.././simpleserial/simpleserial.c **** 			crc = crc & 0x80 ? (crc << 1) ^ CW_CRC: crc << 1;
 1017              		.loc 1 26 22 is_stmt 1 view .LVU342
  26:.././simpleserial/simpleserial.c **** 			crc = crc & 0x80 ? (crc << 1) ^ CW_CRC: crc << 1;
 1018              		.loc 1 26 15 view .LVU343
  27:.././simpleserial/simpleserial.c **** 		}
 1019              		.loc 1 27 4 view .LVU344
  27:.././simpleserial/simpleserial.c **** 		}
 1020              		.loc 1 27 8 is_stmt 0 view .LVU345
 1021 0016 002B     		cmp	r3, #0
 1022 0018 2FDB     		blt	.L87
 1023              	.L106:
  27:.././simpleserial/simpleserial.c **** 		}
 1024              		.loc 1 27 8 view .LVU346
 1025 001a 6B00     		lsls	r3, r5, #1
 1026 001c D8B2     		uxtb	r0, r3
  27:.././simpleserial/simpleserial.c **** 		}
 1027              		.loc 1 27 21 view .LVU347
 1028 001e 5BB2     		sxtb	r3, r3
 1029              	.LVL124:
  26:.././simpleserial/simpleserial.c **** 			crc = crc & 0x80 ? (crc << 1) ^ CW_CRC: crc << 1;
 1030              		.loc 1 26 22 is_stmt 1 view .LVU348
  26:.././simpleserial/simpleserial.c **** 			crc = crc & 0x80 ? (crc << 1) ^ CW_CRC: crc << 1;
 1031              		.loc 1 26 15 view .LVU349
  27:.././simpleserial/simpleserial.c **** 		}
 1032              		.loc 1 27 4 view .LVU350
  27:.././simpleserial/simpleserial.c **** 		}
 1033              		.loc 1 27 8 is_stmt 0 view .LVU351
 1034 0020 002B     		cmp	r3, #0
 1035 0022 30DB     		blt	.L89
 1036              	.L107:
  27:.././simpleserial/simpleserial.c **** 		}
 1037              		.loc 1 27 8 view .LVU352
 1038 0024 4300     		lsls	r3, r0, #1
 1039 0026 D8B2     		uxtb	r0, r3
 1040              	.LVL125:
  27:.././simpleserial/simpleserial.c **** 		}
 1041              		.loc 1 27 21 view .LVU353
 1042 0028 5BB2     		sxtb	r3, r3
 1043              	.LVL126:
  26:.././simpleserial/simpleserial.c **** 			crc = crc & 0x80 ? (crc << 1) ^ CW_CRC: crc << 1;
 1044              		.loc 1 26 22 is_stmt 1 view .LVU354
  26:.././simpleserial/simpleserial.c **** 			crc = crc & 0x80 ? (crc << 1) ^ CW_CRC: crc << 1;
 1045              		.loc 1 26 15 view .LVU355
  27:.././simpleserial/simpleserial.c **** 		}
 1046              		.loc 1 27 4 view .LVU356
  27:.././simpleserial/simpleserial.c **** 		}
 1047              		.loc 1 27 8 is_stmt 0 view .LVU357
 1048 002a 002B     		cmp	r3, #0
 1049 002c 31DB     		blt	.L91
 1050              	.L108:
  27:.././simpleserial/simpleserial.c **** 		}
 1051              		.loc 1 27 8 view .LVU358
 1052 002e 4300     		lsls	r3, r0, #1
 1053 0030 D8B2     		uxtb	r0, r3
 1054              	.LVL127:
  27:.././simpleserial/simpleserial.c **** 		}
 1055              		.loc 1 27 21 view .LVU359
 1056 0032 5BB2     		sxtb	r3, r3
 1057              	.LVL128:
  26:.././simpleserial/simpleserial.c **** 			crc = crc & 0x80 ? (crc << 1) ^ CW_CRC: crc << 1;
 1058              		.loc 1 26 22 is_stmt 1 view .LVU360
  26:.././simpleserial/simpleserial.c **** 			crc = crc & 0x80 ? (crc << 1) ^ CW_CRC: crc << 1;
 1059              		.loc 1 26 15 view .LVU361
  27:.././simpleserial/simpleserial.c **** 		}
 1060              		.loc 1 27 4 view .LVU362
  27:.././simpleserial/simpleserial.c **** 		}
 1061              		.loc 1 27 8 is_stmt 0 view .LVU363
 1062 0034 002B     		cmp	r3, #0
 1063 0036 32DB     		blt	.L93
 1064              	.L109:
  27:.././simpleserial/simpleserial.c **** 		}
 1065              		.loc 1 27 8 view .LVU364
 1066 0038 4300     		lsls	r3, r0, #1
 1067 003a D8B2     		uxtb	r0, r3
 1068              	.LVL129:
  27:.././simpleserial/simpleserial.c **** 		}
 1069              		.loc 1 27 21 view .LVU365
 1070 003c 5BB2     		sxtb	r3, r3
 1071              	.LVL130:
  26:.././simpleserial/simpleserial.c **** 			crc = crc & 0x80 ? (crc << 1) ^ CW_CRC: crc << 1;
 1072              		.loc 1 26 22 is_stmt 1 view .LVU366
  26:.././simpleserial/simpleserial.c **** 			crc = crc & 0x80 ? (crc << 1) ^ CW_CRC: crc << 1;
 1073              		.loc 1 26 15 view .LVU367
  27:.././simpleserial/simpleserial.c **** 		}
 1074              		.loc 1 27 4 view .LVU368
  27:.././simpleserial/simpleserial.c **** 		}
 1075              		.loc 1 27 8 is_stmt 0 view .LVU369
 1076 003e 002B     		cmp	r3, #0
 1077 0040 33DB     		blt	.L95
 1078              	.L110:
  27:.././simpleserial/simpleserial.c **** 		}
 1079              		.loc 1 27 8 view .LVU370
 1080 0042 4300     		lsls	r3, r0, #1
 1081 0044 D8B2     		uxtb	r0, r3
 1082              	.LVL131:
  27:.././simpleserial/simpleserial.c **** 		}
 1083              		.loc 1 27 21 view .LVU371
 1084 0046 5BB2     		sxtb	r3, r3
 1085              	.LVL132:
  26:.././simpleserial/simpleserial.c **** 			crc = crc & 0x80 ? (crc << 1) ^ CW_CRC: crc << 1;
 1086              		.loc 1 26 22 is_stmt 1 view .LVU372
  26:.././simpleserial/simpleserial.c **** 			crc = crc & 0x80 ? (crc << 1) ^ CW_CRC: crc << 1;
 1087              		.loc 1 26 15 view .LVU373
  27:.././simpleserial/simpleserial.c **** 		}
 1088              		.loc 1 27 4 view .LVU374
  27:.././simpleserial/simpleserial.c **** 		}
 1089              		.loc 1 27 8 is_stmt 0 view .LVU375
 1090 0048 002B     		cmp	r3, #0
 1091 004a 34DB     		blt	.L97
 1092              	.L111:
  27:.././simpleserial/simpleserial.c **** 		}
 1093              		.loc 1 27 8 view .LVU376
 1094 004c 4300     		lsls	r3, r0, #1
 1095 004e D8B2     		uxtb	r0, r3
 1096              	.LVL133:
  27:.././simpleserial/simpleserial.c **** 		}
 1097              		.loc 1 27 21 view .LVU377
 1098 0050 5BB2     		sxtb	r3, r3
 1099              	.L98:
 1100              	.LVL134:
  26:.././simpleserial/simpleserial.c **** 			crc = crc & 0x80 ? (crc << 1) ^ CW_CRC: crc << 1;
 1101              		.loc 1 26 22 is_stmt 1 view .LVU378
  26:.././simpleserial/simpleserial.c **** 			crc = crc & 0x80 ? (crc << 1) ^ CW_CRC: crc << 1;
 1102              		.loc 1 26 15 view .LVU379
  27:.././simpleserial/simpleserial.c **** 		}
 1103              		.loc 1 27 4 view .LVU380
  27:.././simpleserial/simpleserial.c **** 		}
 1104              		.loc 1 27 28 is_stmt 0 view .LVU381
 1105 0052 4000     		lsls	r0, r0, #1
 1106              	.LVL135:
  27:.././simpleserial/simpleserial.c **** 		}
 1107              		.loc 1 27 8 view .LVU382
 1108 0054 002B     		cmp	r3, #0
 1109 0056 00DA     		bge	.L104
  27:.././simpleserial/simpleserial.c **** 		}
 1110              		.loc 1 27 34 view .LVU383
 1111 0058 4840     		eors	r0, r1
 1112              	.L104:
  24:.././simpleserial/simpleserial.c **** 		crc ^= *buf++;
 1113              		.loc 1 24 8 view .LVU384
 1114 005a 0132     		adds	r2, r2, #1
 1115              	.LVL136:
  24:.././simpleserial/simpleserial.c **** 		crc ^= *buf++;
 1116              		.loc 1 24 8 view .LVU385
 1117 005c D3B2     		uxtb	r3, r2
  27:.././simpleserial/simpleserial.c **** 		}
 1118              		.loc 1 27 8 view .LVU386
 1119 005e C0B2     		uxtb	r0, r0
 1120              	.LVL137:
  24:.././simpleserial/simpleserial.c **** 		crc ^= *buf++;
 1121              		.loc 1 24 8 is_stmt 1 view .LVU387
  24:.././simpleserial/simpleserial.c **** 		crc ^= *buf++;
 1122              		.loc 1 24 8 is_stmt 0 view .LVU388
 1123 0060 9C42     		cmp	r4, r3
 1124 0062 2ED0     		beq	.L84
 1125              	.LVL138:
 1126              	.L101:
  25:.././simpleserial/simpleserial.c **** 		for (k = 0; k < 8; k++) {
 1127              		.loc 1 25 3 is_stmt 1 view .LVU389
  25:.././simpleserial/simpleserial.c **** 		for (k = 0; k < 8; k++) {
 1128              		.loc 1 25 7 is_stmt 0 view .LVU390
 1129 0064 1378     		ldrb	r3, [r2]
 1130 0066 5840     		eors	r0, r3
 1131              	.LVL139:
  26:.././simpleserial/simpleserial.c **** 			crc = crc & 0x80 ? (crc << 1) ^ CW_CRC: crc << 1;
 1132              		.loc 1 26 3 is_stmt 1 view .LVU391
  26:.././simpleserial/simpleserial.c **** 			crc = crc & 0x80 ? (crc << 1) ^ CW_CRC: crc << 1;
 1133              		.loc 1 26 15 view .LVU392
  27:.././simpleserial/simpleserial.c **** 		}
 1134              		.loc 1 27 4 view .LVU393
  27:.././simpleserial/simpleserial.c **** 		}
 1135              		.loc 1 27 8 is_stmt 0 view .LVU394
 1136 0068 43B2     		sxtb	r3, r0
  27:.././simpleserial/simpleserial.c **** 		}
 1137              		.loc 1 27 28 view .LVU395
 1138 006a 4000     		lsls	r0, r0, #1
 1139              	.LVL140:
  27:.././simpleserial/simpleserial.c **** 		}
 1140              		.loc 1 27 8 view .LVU396
 1141 006c 002B     		cmp	r3, #0
 1142 006e D0DA     		bge	.L105
  27:.././simpleserial/simpleserial.c **** 		}
 1143              		.loc 1 27 34 view .LVU397
 1144 0070 4840     		eors	r0, r1
 1145 0072 43B2     		sxtb	r3, r0
 1146              	.LVL141:
  27:.././simpleserial/simpleserial.c **** 		}
 1147              		.loc 1 27 8 view .LVU398
 1148 0074 C5B2     		uxtb	r5, r0
 1149              	.LVL142:
  26:.././simpleserial/simpleserial.c **** 			crc = crc & 0x80 ? (crc << 1) ^ CW_CRC: crc << 1;
 1150              		.loc 1 26 22 is_stmt 1 view .LVU399
  26:.././simpleserial/simpleserial.c **** 			crc = crc & 0x80 ? (crc << 1) ^ CW_CRC: crc << 1;
 1151              		.loc 1 26 15 view .LVU400
  27:.././simpleserial/simpleserial.c **** 		}
 1152              		.loc 1 27 4 view .LVU401
  27:.././simpleserial/simpleserial.c **** 		}
 1153              		.loc 1 27 8 is_stmt 0 view .LVU402
 1154 0076 002B     		cmp	r3, #0
 1155 0078 CFDA     		bge	.L106
 1156              	.L87:
  27:.././simpleserial/simpleserial.c **** 		}
 1157              		.loc 1 27 28 view .LVU403
 1158 007a 6800     		lsls	r0, r5, #1
  27:.././simpleserial/simpleserial.c **** 		}
 1159              		.loc 1 27 34 view .LVU404
 1160 007c 4840     		eors	r0, r1
 1161 007e 43B2     		sxtb	r3, r0
  27:.././simpleserial/simpleserial.c **** 		}
 1162              		.loc 1 27 8 view .LVU405
 1163 0080 C0B2     		uxtb	r0, r0
 1164              	.LVL143:
  26:.././simpleserial/simpleserial.c **** 			crc = crc & 0x80 ? (crc << 1) ^ CW_CRC: crc << 1;
 1165              		.loc 1 26 22 is_stmt 1 view .LVU406
  26:.././simpleserial/simpleserial.c **** 			crc = crc & 0x80 ? (crc << 1) ^ CW_CRC: crc << 1;
 1166              		.loc 1 26 15 view .LVU407
  27:.././simpleserial/simpleserial.c **** 		}
 1167              		.loc 1 27 4 view .LVU408
  27:.././simpleserial/simpleserial.c **** 		}
 1168              		.loc 1 27 8 is_stmt 0 view .LVU409
 1169 0082 002B     		cmp	r3, #0
 1170 0084 CEDA     		bge	.L107
 1171              	.L89:
  27:.././simpleserial/simpleserial.c **** 		}
 1172              		.loc 1 27 28 view .LVU410
 1173 0086 4000     		lsls	r0, r0, #1
 1174              	.LVL144:
  27:.././simpleserial/simpleserial.c **** 		}
 1175              		.loc 1 27 34 view .LVU411
 1176 0088 4840     		eors	r0, r1
 1177 008a 43B2     		sxtb	r3, r0
  27:.././simpleserial/simpleserial.c **** 		}
 1178              		.loc 1 27 8 view .LVU412
 1179 008c C0B2     		uxtb	r0, r0
 1180              	.LVL145:
  26:.././simpleserial/simpleserial.c **** 			crc = crc & 0x80 ? (crc << 1) ^ CW_CRC: crc << 1;
 1181              		.loc 1 26 22 is_stmt 1 view .LVU413
  26:.././simpleserial/simpleserial.c **** 			crc = crc & 0x80 ? (crc << 1) ^ CW_CRC: crc << 1;
 1182              		.loc 1 26 15 view .LVU414
  27:.././simpleserial/simpleserial.c **** 		}
 1183              		.loc 1 27 4 view .LVU415
  27:.././simpleserial/simpleserial.c **** 		}
 1184              		.loc 1 27 8 is_stmt 0 view .LVU416
 1185 008e 002B     		cmp	r3, #0
 1186 0090 CDDA     		bge	.L108
 1187              	.L91:
  27:.././simpleserial/simpleserial.c **** 		}
 1188              		.loc 1 27 28 view .LVU417
 1189 0092 4000     		lsls	r0, r0, #1
 1190              	.LVL146:
  27:.././simpleserial/simpleserial.c **** 		}
 1191              		.loc 1 27 34 view .LVU418
 1192 0094 4840     		eors	r0, r1
 1193 0096 43B2     		sxtb	r3, r0
  27:.././simpleserial/simpleserial.c **** 		}
 1194              		.loc 1 27 8 view .LVU419
 1195 0098 C0B2     		uxtb	r0, r0
 1196              	.LVL147:
  26:.././simpleserial/simpleserial.c **** 			crc = crc & 0x80 ? (crc << 1) ^ CW_CRC: crc << 1;
 1197              		.loc 1 26 22 is_stmt 1 view .LVU420
  26:.././simpleserial/simpleserial.c **** 			crc = crc & 0x80 ? (crc << 1) ^ CW_CRC: crc << 1;
 1198              		.loc 1 26 15 view .LVU421
  27:.././simpleserial/simpleserial.c **** 		}
 1199              		.loc 1 27 4 view .LVU422
  27:.././simpleserial/simpleserial.c **** 		}
 1200              		.loc 1 27 8 is_stmt 0 view .LVU423
 1201 009a 002B     		cmp	r3, #0
 1202 009c CCDA     		bge	.L109
 1203              	.L93:
  27:.././simpleserial/simpleserial.c **** 		}
 1204              		.loc 1 27 28 view .LVU424
 1205 009e 4000     		lsls	r0, r0, #1
 1206              	.LVL148:
  27:.././simpleserial/simpleserial.c **** 		}
 1207              		.loc 1 27 34 view .LVU425
 1208 00a0 4840     		eors	r0, r1
 1209 00a2 43B2     		sxtb	r3, r0
  27:.././simpleserial/simpleserial.c **** 		}
 1210              		.loc 1 27 8 view .LVU426
 1211 00a4 C0B2     		uxtb	r0, r0
 1212              	.LVL149:
  26:.././simpleserial/simpleserial.c **** 			crc = crc & 0x80 ? (crc << 1) ^ CW_CRC: crc << 1;
 1213              		.loc 1 26 22 is_stmt 1 view .LVU427
  26:.././simpleserial/simpleserial.c **** 			crc = crc & 0x80 ? (crc << 1) ^ CW_CRC: crc << 1;
 1214              		.loc 1 26 15 view .LVU428
  27:.././simpleserial/simpleserial.c **** 		}
 1215              		.loc 1 27 4 view .LVU429
  27:.././simpleserial/simpleserial.c **** 		}
 1216              		.loc 1 27 8 is_stmt 0 view .LVU430
 1217 00a6 002B     		cmp	r3, #0
 1218 00a8 CBDA     		bge	.L110
 1219              	.L95:
  27:.././simpleserial/simpleserial.c **** 		}
 1220              		.loc 1 27 28 view .LVU431
 1221 00aa 4000     		lsls	r0, r0, #1
 1222              	.LVL150:
  27:.././simpleserial/simpleserial.c **** 		}
 1223              		.loc 1 27 34 view .LVU432
 1224 00ac 4840     		eors	r0, r1
 1225 00ae 43B2     		sxtb	r3, r0
  27:.././simpleserial/simpleserial.c **** 		}
 1226              		.loc 1 27 8 view .LVU433
 1227 00b0 C0B2     		uxtb	r0, r0
 1228              	.LVL151:
  26:.././simpleserial/simpleserial.c **** 			crc = crc & 0x80 ? (crc << 1) ^ CW_CRC: crc << 1;
 1229              		.loc 1 26 22 is_stmt 1 view .LVU434
  26:.././simpleserial/simpleserial.c **** 			crc = crc & 0x80 ? (crc << 1) ^ CW_CRC: crc << 1;
 1230              		.loc 1 26 15 view .LVU435
  27:.././simpleserial/simpleserial.c **** 		}
 1231              		.loc 1 27 4 view .LVU436
  27:.././simpleserial/simpleserial.c **** 		}
 1232              		.loc 1 27 8 is_stmt 0 view .LVU437
 1233 00b2 002B     		cmp	r3, #0
 1234 00b4 CADA     		bge	.L111
 1235              	.L97:
  27:.././simpleserial/simpleserial.c **** 		}
 1236              		.loc 1 27 28 view .LVU438
 1237 00b6 4000     		lsls	r0, r0, #1
 1238              	.LVL152:
  27:.././simpleserial/simpleserial.c **** 		}
 1239              		.loc 1 27 34 view .LVU439
 1240 00b8 4840     		eors	r0, r1
 1241 00ba 43B2     		sxtb	r3, r0
  27:.././simpleserial/simpleserial.c **** 		}
 1242              		.loc 1 27 8 view .LVU440
 1243 00bc C0B2     		uxtb	r0, r0
 1244 00be C8E7     		b	.L98
 1245              	.LVL153:
 1246              	.L102:
  23:.././simpleserial/simpleserial.c **** 	while (len--) {
 1247              		.loc 1 23 10 view .LVU441
 1248 00c0 0020     		movs	r0, #0
 1249              	.LVL154:
 1250              	.L84:
  30:.././simpleserial/simpleserial.c **** 
 1251              		.loc 1 30 2 is_stmt 1 view .LVU442
  32:.././simpleserial/simpleserial.c **** 
 1252              		.loc 1 32 1 is_stmt 0 view .LVU443
 1253              		@ sp needed
 1254 00c2 30BD     		pop	{r4, r5, pc}
 1255              		.cfi_endproc
 1256              	.LFE0:
 1258              		.section	.text.hex_decode,"ax",%progbits
 1259              		.align	1
 1260              		.p2align 2,,3
 1261              		.global	hex_decode
 1262              		.syntax unified
 1263              		.code	16
 1264              		.thumb_func
 1265              		.fpu softvfp
 1267              	hex_decode:
 1268              	.LVL155:
 1269              	.LFB1:
  42:.././simpleserial/simpleserial.c **** 	for(int i = 0; i < len; i++)
 1270              		.loc 1 42 1 is_stmt 1 view -0
 1271              		.cfi_startproc
 1272              		@ args = 0, pretend = 0, frame = 0
 1273              		@ frame_needed = 0, uses_anonymous_args = 0
  43:.././simpleserial/simpleserial.c **** 	{
 1274              		.loc 1 43 2 view .LVU445
 1275              	.LBB32:
  43:.././simpleserial/simpleserial.c **** 	{
 1276              		.loc 1 43 6 view .LVU446
  43:.././simpleserial/simpleserial.c **** 	{
 1277              		.loc 1 43 17 view .LVU447
 1278              	.LBE32:
  42:.././simpleserial/simpleserial.c **** 	for(int i = 0; i < len; i++)
 1279              		.loc 1 42 1 is_stmt 0 view .LVU448
 1280 0000 70B5     		push	{r4, r5, r6, lr}
 1281              	.LCFI5:
 1282              		.cfi_def_cfa_offset 16
 1283              		.cfi_offset 4, -16
 1284              		.cfi_offset 5, -12
 1285              		.cfi_offset 6, -8
 1286              		.cfi_offset 14, -4
 1287 0002 1518     		adds	r5, r2, r0
 1288              	.LBB36:
  43:.././simpleserial/simpleserial.c **** 	{
 1289              		.loc 1 43 2 view .LVU449
 1290 0004 0028     		cmp	r0, #0
 1291 0006 13DC     		bgt	.L123
 1292 0008 2BE0     		b	.L124
 1293              	.LVL156:
 1294              	.L115:
 1295              	.LBB33:
  50:.././simpleserial/simpleserial.c **** 			data_buf[i] = n_lo - 'A' + 10;
 1296              		.loc 1 50 8 is_stmt 1 view .LVU450
  50:.././simpleserial/simpleserial.c **** 			data_buf[i] = n_lo - 'A' + 10;
 1297              		.loc 1 50 10 is_stmt 0 view .LVU451
 1298 000a 2300     		movs	r3, r4
 1299 000c 413B     		subs	r3, r3, #65
 1300 000e 052B     		cmp	r3, #5
 1301 0010 29D8     		bhi	.L117
  51:.././simpleserial/simpleserial.c **** 		else if(n_lo >= 'a' && n_lo <= 'f')
 1302              		.loc 1 51 4 is_stmt 1 view .LVU452
  51:.././simpleserial/simpleserial.c **** 		else if(n_lo >= 'a' && n_lo <= 'f')
 1303              		.loc 1 51 29 is_stmt 0 view .LVU453
 1304 0012 373C     		subs	r4, r4, #55
 1305              	.LVL157:
  51:.././simpleserial/simpleserial.c **** 		else if(n_lo >= 'a' && n_lo <= 'f')
 1306              		.loc 1 51 29 view .LVU454
 1307 0014 E3B2     		uxtb	r3, r4
  57:.././simpleserial/simpleserial.c **** 			data_buf[i] |= (n_hi - '0') << 4;
 1308              		.loc 1 57 18 view .LVU455
 1309 0016 0400     		movs	r4, r0
 1310              	.LVL158:
  57:.././simpleserial/simpleserial.c **** 			data_buf[i] |= (n_hi - '0') << 4;
 1311              		.loc 1 57 18 view .LVU456
 1312 0018 303C     		subs	r4, r4, #48
  57:.././simpleserial/simpleserial.c **** 			data_buf[i] |= (n_hi - '0') << 4;
 1313              		.loc 1 57 5 view .LVU457
 1314 001a E6B2     		uxtb	r6, r4
  51:.././simpleserial/simpleserial.c **** 		else if(n_lo >= 'a' && n_lo <= 'f')
 1315              		.loc 1 51 16 view .LVU458
 1316 001c 1370     		strb	r3, [r2]
 1317              	.LVL159:
  57:.././simpleserial/simpleserial.c **** 			data_buf[i] |= (n_hi - '0') << 4;
 1318              		.loc 1 57 3 is_stmt 1 view .LVU459
  57:.././simpleserial/simpleserial.c **** 			data_buf[i] |= (n_hi - '0') << 4;
 1319              		.loc 1 57 5 is_stmt 0 view .LVU460
 1320 001e 092E     		cmp	r6, #9
 1321 0020 13D8     		bhi	.L119
 1322              	.L128:
  58:.././simpleserial/simpleserial.c **** 		else if(n_hi >= 'A' && n_hi <= 'F')
 1323              		.loc 1 58 4 is_stmt 1 view .LVU461
  58:.././simpleserial/simpleserial.c **** 		else if(n_hi >= 'A' && n_hi <= 'F')
 1324              		.loc 1 58 32 is_stmt 0 view .LVU462
 1325 0022 2401     		lsls	r4, r4, #4
  58:.././simpleserial/simpleserial.c **** 		else if(n_hi >= 'A' && n_hi <= 'F')
 1326              		.loc 1 58 16 view .LVU463
 1327 0024 2343     		orrs	r3, r4
 1328 0026 1370     		strb	r3, [r2]
 1329              	.LVL160:
 1330              	.L120:
  58:.././simpleserial/simpleserial.c **** 		else if(n_hi >= 'A' && n_hi <= 'F')
 1331              		.loc 1 58 16 view .LVU464
 1332              	.LBE33:
  43:.././simpleserial/simpleserial.c **** 	{
 1333              		.loc 1 43 26 is_stmt 1 discriminator 2 view .LVU465
  43:.././simpleserial/simpleserial.c **** 	{
 1334              		.loc 1 43 17 discriminator 2 view .LVU466
  43:.././simpleserial/simpleserial.c **** 	{
 1335              		.loc 1 43 2 is_stmt 0 discriminator 2 view .LVU467
 1336 0028 0132     		adds	r2, r2, #1
 1337              	.LVL161:
  43:.././simpleserial/simpleserial.c **** 	{
 1338              		.loc 1 43 2 discriminator 2 view .LVU468
 1339 002a 0231     		adds	r1, r1, #2
 1340 002c 9542     		cmp	r5, r2
 1341 002e 18D0     		beq	.L124
 1342              	.LVL162:
 1343              	.L123:
 1344              	.LBB34:
  45:.././simpleserial/simpleserial.c **** 		char n_lo = ascii_buf[2*i+1];
 1345              		.loc 1 45 3 is_stmt 1 view .LVU469
  46:.././simpleserial/simpleserial.c **** 
 1346              		.loc 1 46 8 is_stmt 0 view .LVU470
 1347 0030 4C78     		ldrb	r4, [r1, #1]
  45:.././simpleserial/simpleserial.c **** 		char n_lo = ascii_buf[2*i+1];
 1348              		.loc 1 45 8 view .LVU471
 1349 0032 0878     		ldrb	r0, [r1]
 1350              	.LVL163:
  46:.././simpleserial/simpleserial.c **** 
 1351              		.loc 1 46 3 is_stmt 1 view .LVU472
  48:.././simpleserial/simpleserial.c **** 			data_buf[i] = n_lo - '0';
 1352              		.loc 1 48 3 view .LVU473
  48:.././simpleserial/simpleserial.c **** 			data_buf[i] = n_lo - '0';
 1353              		.loc 1 48 18 is_stmt 0 view .LVU474
 1354 0034 2300     		movs	r3, r4
 1355 0036 303B     		subs	r3, r3, #48
 1356 0038 DBB2     		uxtb	r3, r3
  48:.././simpleserial/simpleserial.c **** 			data_buf[i] = n_lo - '0';
 1357              		.loc 1 48 5 view .LVU475
 1358 003a 092B     		cmp	r3, #9
 1359 003c E5D8     		bhi	.L115
  53:.././simpleserial/simpleserial.c **** 		else
 1360              		.loc 1 53 16 view .LVU476
 1361 003e 1370     		strb	r3, [r2]
 1362              	.LVL164:
 1363              	.L129:
  57:.././simpleserial/simpleserial.c **** 			data_buf[i] |= (n_hi - '0') << 4;
 1364              		.loc 1 57 3 is_stmt 1 view .LVU477
  57:.././simpleserial/simpleserial.c **** 			data_buf[i] |= (n_hi - '0') << 4;
 1365              		.loc 1 57 18 is_stmt 0 view .LVU478
 1366 0040 0400     		movs	r4, r0
 1367 0042 303C     		subs	r4, r4, #48
  57:.././simpleserial/simpleserial.c **** 			data_buf[i] |= (n_hi - '0') << 4;
 1368              		.loc 1 57 5 view .LVU479
 1369 0044 E6B2     		uxtb	r6, r4
 1370 0046 092E     		cmp	r6, #9
 1371 0048 EBD9     		bls	.L128
 1372              	.L119:
  59:.././simpleserial/simpleserial.c **** 			data_buf[i] |= (n_hi - 'A' + 10) << 4;
 1373              		.loc 1 59 8 is_stmt 1 view .LVU480
  59:.././simpleserial/simpleserial.c **** 			data_buf[i] |= (n_hi - 'A' + 10) << 4;
 1374              		.loc 1 59 10 is_stmt 0 view .LVU481
 1375 004a 0400     		movs	r4, r0
 1376 004c 413C     		subs	r4, r4, #65
 1377 004e 052C     		cmp	r4, #5
 1378 0050 11D8     		bhi	.L121
  60:.././simpleserial/simpleserial.c **** 		else if(n_hi >= 'a' && n_hi <= 'f')
 1379              		.loc 1 60 4 is_stmt 1 view .LVU482
  60:.././simpleserial/simpleserial.c **** 		else if(n_hi >= 'a' && n_hi <= 'f')
 1380              		.loc 1 60 31 is_stmt 0 view .LVU483
 1381 0052 3738     		subs	r0, r0, #55
 1382              	.LVL165:
  60:.././simpleserial/simpleserial.c **** 		else if(n_hi >= 'a' && n_hi <= 'f')
 1383              		.loc 1 60 37 view .LVU484
 1384 0054 0001     		lsls	r0, r0, #4
 1385              	.LVL166:
  60:.././simpleserial/simpleserial.c **** 		else if(n_hi >= 'a' && n_hi <= 'f')
 1386              		.loc 1 60 16 view .LVU485
 1387 0056 0343     		orrs	r3, r0
 1388 0058 1370     		strb	r3, [r2]
 1389              	.LBE34:
  43:.././simpleserial/simpleserial.c **** 	{
 1390              		.loc 1 43 26 is_stmt 1 view .LVU486
 1391              	.LVL167:
  43:.././simpleserial/simpleserial.c **** 	{
 1392              		.loc 1 43 17 view .LVU487
  43:.././simpleserial/simpleserial.c **** 	{
 1393              		.loc 1 43 2 is_stmt 0 view .LVU488
 1394 005a 0132     		adds	r2, r2, #1
 1395              	.LVL168:
  43:.././simpleserial/simpleserial.c **** 	{
 1396              		.loc 1 43 2 view .LVU489
 1397 005c 0231     		adds	r1, r1, #2
 1398 005e 9542     		cmp	r5, r2
 1399 0060 E6D1     		bne	.L123
 1400              	.LVL169:
 1401              	.L124:
  43:.././simpleserial/simpleserial.c **** 	{
 1402              		.loc 1 43 2 view .LVU490
 1403              	.LBE36:
  67:.././simpleserial/simpleserial.c **** }
 1404              		.loc 1 67 9 view .LVU491
 1405 0062 0020     		movs	r0, #0
 1406              	.L112:
  68:.././simpleserial/simpleserial.c **** 
 1407              		.loc 1 68 1 view .LVU492
 1408              		@ sp needed
 1409 0064 70BD     		pop	{r4, r5, r6, pc}
 1410              	.LVL170:
 1411              	.L117:
 1412              	.LBB37:
 1413              	.LBB35:
  52:.././simpleserial/simpleserial.c **** 			data_buf[i] = n_lo - 'a' + 10;
 1414              		.loc 1 52 8 is_stmt 1 view .LVU493
  52:.././simpleserial/simpleserial.c **** 			data_buf[i] = n_lo - 'a' + 10;
 1415              		.loc 1 52 10 is_stmt 0 view .LVU494
 1416 0066 2300     		movs	r3, r4
 1417 0068 613B     		subs	r3, r3, #97
 1418 006a 052B     		cmp	r3, #5
 1419 006c 0CD8     		bhi	.L122
  53:.././simpleserial/simpleserial.c **** 		else
 1420              		.loc 1 53 4 is_stmt 1 view .LVU495
  53:.././simpleserial/simpleserial.c **** 		else
 1421              		.loc 1 53 29 is_stmt 0 view .LVU496
 1422 006e 573C     		subs	r4, r4, #87
 1423              	.LVL171:
  53:.././simpleserial/simpleserial.c **** 		else
 1424              		.loc 1 53 29 view .LVU497
 1425 0070 E3B2     		uxtb	r3, r4
  53:.././simpleserial/simpleserial.c **** 		else
 1426              		.loc 1 53 16 view .LVU498
 1427 0072 1370     		strb	r3, [r2]
 1428 0074 E4E7     		b	.L129
 1429              	.LVL172:
 1430              	.L121:
  61:.././simpleserial/simpleserial.c **** 			data_buf[i] |= (n_hi - 'a' + 10) << 4;
 1431              		.loc 1 61 8 is_stmt 1 view .LVU499
  61:.././simpleserial/simpleserial.c **** 			data_buf[i] |= (n_hi - 'a' + 10) << 4;
 1432              		.loc 1 61 10 is_stmt 0 view .LVU500
 1433 0076 0400     		movs	r4, r0
 1434 0078 613C     		subs	r4, r4, #97
 1435 007a 052C     		cmp	r4, #5
 1436 007c 04D8     		bhi	.L122
  62:.././simpleserial/simpleserial.c **** 		else
 1437              		.loc 1 62 4 is_stmt 1 view .LVU501
  62:.././simpleserial/simpleserial.c **** 		else
 1438              		.loc 1 62 31 is_stmt 0 view .LVU502
 1439 007e 5738     		subs	r0, r0, #87
 1440              	.LVL173:
  62:.././simpleserial/simpleserial.c **** 		else
 1441              		.loc 1 62 37 view .LVU503
 1442 0080 0001     		lsls	r0, r0, #4
 1443              	.LVL174:
  62:.././simpleserial/simpleserial.c **** 		else
 1444              		.loc 1 62 16 view .LVU504
 1445 0082 0343     		orrs	r3, r0
 1446 0084 1370     		strb	r3, [r2]
 1447 0086 CFE7     		b	.L120
 1448              	.LVL175:
 1449              	.L122:
  55:.././simpleserial/simpleserial.c **** 
 1450              		.loc 1 55 11 view .LVU505
 1451 0088 0120     		movs	r0, #1
 1452              	.LVL176:
  55:.././simpleserial/simpleserial.c **** 
 1453              		.loc 1 55 11 view .LVU506
 1454 008a EBE7     		b	.L112
 1455              	.LBE35:
 1456              	.LBE37:
 1457              		.cfi_endproc
 1458              	.LFE1:
 1460              		.section	.text.ss_puts,"ax",%progbits
 1461              		.align	1
 1462              		.p2align 2,,3
 1463              		.global	ss_puts
 1464              		.syntax unified
 1465              		.code	16
 1466              		.thumb_func
 1467              		.fpu softvfp
 1469              	ss_puts:
 1470              	.LVL177:
 1471              	.LFB2:
  79:.././simpleserial/simpleserial.c **** 	do {
 1472              		.loc 1 79 1 is_stmt 1 view -0
 1473              		.cfi_startproc
 1474              		@ args = 0, pretend = 0, frame = 0
 1475              		@ frame_needed = 0, uses_anonymous_args = 0
  79:.././simpleserial/simpleserial.c **** 	do {
 1476              		.loc 1 79 1 is_stmt 0 view .LVU508
 1477 0000 10B5     		push	{r4, lr}
 1478              	.LCFI6:
 1479              		.cfi_def_cfa_offset 8
 1480              		.cfi_offset 4, -8
 1481              		.cfi_offset 14, -4
 1482 0002 0400     		movs	r4, r0
 1483              	.LVL178:
 1484              	.L131:
  80:.././simpleserial/simpleserial.c **** 		putch(*x);
 1485              		.loc 1 80 2 is_stmt 1 discriminator 1 view .LVU509
  81:.././simpleserial/simpleserial.c **** 	} while (*++x);
 1486              		.loc 1 81 3 discriminator 1 view .LVU510
 1487 0004 2078     		ldrb	r0, [r4]
  82:.././simpleserial/simpleserial.c **** }
 1488              		.loc 1 82 2 is_stmt 0 discriminator 1 view .LVU511
 1489 0006 0134     		adds	r4, r4, #1
 1490              	.LVL179:
  81:.././simpleserial/simpleserial.c **** 	} while (*++x);
 1491              		.loc 1 81 3 discriminator 1 view .LVU512
 1492 0008 FFF7FEFF 		bl	putch
 1493              	.LVL180:
  82:.././simpleserial/simpleserial.c **** }
 1494              		.loc 1 82 10 is_stmt 1 discriminator 1 view .LVU513
  82:.././simpleserial/simpleserial.c **** }
 1495              		.loc 1 82 2 is_stmt 0 discriminator 1 view .LVU514
 1496 000c 2378     		ldrb	r3, [r4]
 1497 000e 002B     		cmp	r3, #0
 1498 0010 F8D1     		bne	.L131
  83:.././simpleserial/simpleserial.c **** 
 1499              		.loc 1 83 1 view .LVU515
 1500              		@ sp needed
 1501              	.LVL181:
  83:.././simpleserial/simpleserial.c **** 
 1502              		.loc 1 83 1 view .LVU516
 1503 0012 10BD     		pop	{r4, pc}
 1504              		.cfi_endproc
 1505              	.LFE2:
 1507              		.section	.text.stuff_data,"ax",%progbits
 1508              		.align	1
 1509              		.p2align 2,,3
 1510              		.global	stuff_data
 1511              		.syntax unified
 1512              		.code	16
 1513              		.thumb_func
 1514              		.fpu softvfp
 1516              	stuff_data:
 1517              	.LVL182:
 1518              	.LFB5:
 107:.././simpleserial/simpleserial.c **** 	uint8_t i = 1;
 1519              		.loc 1 107 1 is_stmt 1 view -0
 1520              		.cfi_startproc
 1521              		@ args = 0, pretend = 0, frame = 0
 1522              		@ frame_needed = 0, uses_anonymous_args = 0
 108:.././simpleserial/simpleserial.c **** 	uint8_t last = 0;
 1523              		.loc 1 108 2 view .LVU518
 109:.././simpleserial/simpleserial.c **** 	for (; i < len; i++) {
 1524              		.loc 1 109 2 view .LVU519
 110:.././simpleserial/simpleserial.c **** 		if (buf[i] == FRAME_BYTE) {
 1525              		.loc 1 110 2 view .LVU520
 110:.././simpleserial/simpleserial.c **** 		if (buf[i] == FRAME_BYTE) {
 1526              		.loc 1 110 9 view .LVU521
 107:.././simpleserial/simpleserial.c **** 	uint8_t i = 1;
 1527              		.loc 1 107 1 is_stmt 0 view .LVU522
 1528 0000 30B5     		push	{r4, r5, lr}
 1529              	.LCFI7:
 1530              		.cfi_def_cfa_offset 12
 1531              		.cfi_offset 4, -12
 1532              		.cfi_offset 5, -8
 1533              		.cfi_offset 14, -4
 110:.././simpleserial/simpleserial.c **** 		if (buf[i] == FRAME_BYTE) {
 1534              		.loc 1 110 2 view .LVU523
 1535 0002 0129     		cmp	r1, #1
 1536 0004 0CD9     		bls	.L134
 1537 0006 0123     		movs	r3, #1
 109:.././simpleserial/simpleserial.c **** 	for (; i < len; i++) {
 1538              		.loc 1 109 10 view .LVU524
 1539 0008 0025     		movs	r5, #0
 1540 000a 0122     		movs	r2, #1
 1541              	.LVL183:
 1542              	.L136:
 111:.././simpleserial/simpleserial.c **** 			buf[last] = i - last;
 1543              		.loc 1 111 3 is_stmt 1 view .LVU525
 111:.././simpleserial/simpleserial.c **** 			buf[last] = i - last;
 1544              		.loc 1 111 6 is_stmt 0 view .LVU526
 1545 000c C45C     		ldrb	r4, [r0, r3]
 1546 000e 002C     		cmp	r4, #0
 1547 0010 02D1     		bne	.L135
 112:.././simpleserial/simpleserial.c **** 			last = i;
 1548              		.loc 1 112 4 is_stmt 1 view .LVU527
 112:.././simpleserial/simpleserial.c **** 			last = i;
 1549              		.loc 1 112 18 is_stmt 0 view .LVU528
 1550 0012 541B     		subs	r4, r2, r5
 112:.././simpleserial/simpleserial.c **** 			last = i;
 1551              		.loc 1 112 14 view .LVU529
 1552 0014 4455     		strb	r4, [r0, r5]
 113:.././simpleserial/simpleserial.c **** 		}
 1553              		.loc 1 113 4 is_stmt 1 view .LVU530
 1554              	.LVL184:
 112:.././simpleserial/simpleserial.c **** 			last = i;
 1555              		.loc 1 112 14 is_stmt 0 view .LVU531
 1556 0016 1500     		movs	r5, r2
 1557              	.LVL185:
 1558              	.L135:
 110:.././simpleserial/simpleserial.c **** 		if (buf[i] == FRAME_BYTE) {
 1559              		.loc 1 110 18 is_stmt 1 view .LVU532
 110:.././simpleserial/simpleserial.c **** 		if (buf[i] == FRAME_BYTE) {
 1560              		.loc 1 110 9 view .LVU533
 110:.././simpleserial/simpleserial.c **** 		if (buf[i] == FRAME_BYTE) {
 1561              		.loc 1 110 2 is_stmt 0 view .LVU534
 1562 0018 0133     		adds	r3, r3, #1
 1563              	.LVL186:
 110:.././simpleserial/simpleserial.c **** 		if (buf[i] == FRAME_BYTE) {
 1564              		.loc 1 110 2 view .LVU535
 1565 001a DAB2     		uxtb	r2, r3
 1566 001c 8A42     		cmp	r2, r1
 1567 001e F5D3     		bcc	.L136
 1568              	.LVL187:
 1569              	.L134:
 116:.././simpleserial/simpleserial.c **** }
 1570              		.loc 1 116 2 is_stmt 1 view .LVU536
 117:.././simpleserial/simpleserial.c **** 
 1571              		.loc 1 117 1 is_stmt 0 view .LVU537
 1572              		@ sp needed
 1573 0020 0020     		movs	r0, #0
 1574              	.LVL188:
 117:.././simpleserial/simpleserial.c **** 
 1575              		.loc 1 117 1 view .LVU538
 1576 0022 30BD     		pop	{r4, r5, pc}
 1577              		.cfi_endproc
 1578              	.LFE5:
 1580              		.section	.text.unstuff_data,"ax",%progbits
 1581              		.align	1
 1582              		.p2align 2,,3
 1583              		.global	unstuff_data
 1584              		.syntax unified
 1585              		.code	16
 1586              		.thumb_func
 1587              		.fpu softvfp
 1589              	unstuff_data:
 1590              	.LVL189:
 1591              	.LFB6:
 120:.././simpleserial/simpleserial.c **** 	uint8_t next = buf[0];
 1592              		.loc 1 120 1 is_stmt 1 view -0
 1593              		.cfi_startproc
 1594              		@ args = 0, pretend = 0, frame = 0
 1595              		@ frame_needed = 0, uses_anonymous_args = 0
 121:.././simpleserial/simpleserial.c **** 	buf[0] = 0x00;
 1596              		.loc 1 121 2 view .LVU540
 120:.././simpleserial/simpleserial.c **** 	uint8_t next = buf[0];
 1597              		.loc 1 120 1 is_stmt 0 view .LVU541
 1598 0000 0200     		movs	r2, r0
 122:.././simpleserial/simpleserial.c **** 	//len -= 1;
 1599              		.loc 1 122 9 view .LVU542
 1600 0002 0023     		movs	r3, #0
 120:.././simpleserial/simpleserial.c **** 	uint8_t next = buf[0];
 1601              		.loc 1 120 1 view .LVU543
 1602 0004 30B5     		push	{r4, r5, lr}
 1603              	.LCFI8:
 1604              		.cfi_def_cfa_offset 12
 1605              		.cfi_offset 4, -12
 1606              		.cfi_offset 5, -8
 1607              		.cfi_offset 14, -4
 121:.././simpleserial/simpleserial.c **** 	buf[0] = 0x00;
 1608              		.loc 1 121 10 view .LVU544
 1609 0006 0078     		ldrb	r0, [r0]
 1610              	.LVL190:
 122:.././simpleserial/simpleserial.c **** 	//len -= 1;
 1611              		.loc 1 122 2 is_stmt 1 view .LVU545
 122:.././simpleserial/simpleserial.c **** 	//len -= 1;
 1612              		.loc 1 122 9 is_stmt 0 view .LVU546
 1613 0008 1370     		strb	r3, [r2]
 124:.././simpleserial/simpleserial.c **** 	while ((next < len) && tmp != 0) {
 1614              		.loc 1 124 2 is_stmt 1 view .LVU547
 1615              	.LVL191:
 125:.././simpleserial/simpleserial.c **** 		tmp = buf[next];
 1616              		.loc 1 125 2 view .LVU548
 125:.././simpleserial/simpleserial.c **** 		tmp = buf[next];
 1617              		.loc 1 125 8 view .LVU549
 1618 000a 8842     		cmp	r0, r1
 1619 000c 0CD2     		bcs	.L139
 125:.././simpleserial/simpleserial.c **** 		tmp = buf[next];
 1620              		.loc 1 125 22 is_stmt 0 view .LVU550
 1621 000e 0028     		cmp	r0, #0
 1622 0010 0AD0     		beq	.L139
 127:.././simpleserial/simpleserial.c **** 		next += tmp;
 1623              		.loc 1 127 13 view .LVU551
 1624 0012 0025     		movs	r5, #0
 1625 0014 01E0     		b	.L140
 1626              	.LVL192:
 1627              	.L145:
 125:.././simpleserial/simpleserial.c **** 		tmp = buf[next];
 1628              		.loc 1 125 22 discriminator 1 view .LVU552
 1629 0016 002B     		cmp	r3, #0
 1630 0018 06D0     		beq	.L139
 1631              	.LVL193:
 1632              	.L140:
 126:.././simpleserial/simpleserial.c **** 		buf[next] = FRAME_BYTE;
 1633              		.loc 1 126 3 is_stmt 1 view .LVU553
 126:.././simpleserial/simpleserial.c **** 		buf[next] = FRAME_BYTE;
 1634              		.loc 1 126 7 is_stmt 0 view .LVU554
 1635 001a 135C     		ldrb	r3, [r2, r0]
 1636              	.LVL194:
 127:.././simpleserial/simpleserial.c **** 		next += tmp;
 1637              		.loc 1 127 3 is_stmt 1 view .LVU555
 126:.././simpleserial/simpleserial.c **** 		buf[next] = FRAME_BYTE;
 1638              		.loc 1 126 12 is_stmt 0 view .LVU556
 1639 001c 1418     		adds	r4, r2, r0
 128:.././simpleserial/simpleserial.c **** 	}
 1640              		.loc 1 128 8 view .LVU557
 1641 001e 1818     		adds	r0, r3, r0
 1642              	.LVL195:
 128:.././simpleserial/simpleserial.c **** 	}
 1643              		.loc 1 128 8 view .LVU558
 1644 0020 C0B2     		uxtb	r0, r0
 127:.././simpleserial/simpleserial.c **** 		next += tmp;
 1645              		.loc 1 127 13 view .LVU559
 1646 0022 2570     		strb	r5, [r4]
 128:.././simpleserial/simpleserial.c **** 	}
 1647              		.loc 1 128 3 is_stmt 1 view .LVU560
 1648              	.LVL196:
 125:.././simpleserial/simpleserial.c **** 		tmp = buf[next];
 1649              		.loc 1 125 8 view .LVU561
 1650 0024 8142     		cmp	r1, r0
 1651 0026 F6D8     		bhi	.L145
 1652              	.LVL197:
 1653              	.L139:
 130:.././simpleserial/simpleserial.c **** }
 1654              		.loc 1 130 2 view .LVU562
 131:.././simpleserial/simpleserial.c **** 
 1655              		.loc 1 131 1 is_stmt 0 view .LVU563
 1656              		@ sp needed
 1657 0028 30BD     		pop	{r4, r5, pc}
 1658              		.cfi_endproc
 1659              	.LFE6:
 1661 002a C046     		.section	.text.simpleserial_init,"ax",%progbits
 1662              		.align	1
 1663              		.p2align 2,,3
 1664              		.global	simpleserial_init
 1665              		.syntax unified
 1666              		.code	16
 1667              		.thumb_func
 1668              		.fpu softvfp
 1670              	simpleserial_init:
 1671              	.LFB7:
 136:.././simpleserial/simpleserial.c **** 	simpleserial_addcmd('v', 0, check_version);
 1672              		.loc 1 136 1 is_stmt 1 view -0
 1673              		.cfi_startproc
 1674              		@ args = 0, pretend = 0, frame = 0
 1675              		@ frame_needed = 0, uses_anonymous_args = 0
 137:.././simpleserial/simpleserial.c ****     simpleserial_addcmd('w', 0, ss_get_commands);
 1676              		.loc 1 137 2 view .LVU565
 1677              	.LVL198:
 1678              	.LBB42:
 1679              	.LBI42:
 141:.././simpleserial/simpleserial.c **** {
 1680              		.loc 1 141 5 view .LVU566
 1681              	.LBB43:
 143:.././simpleserial/simpleserial.c **** 		putch('a');
 1682              		.loc 1 143 2 view .LVU567
 1683              	.LBE43:
 1684              	.LBE42:
 136:.././simpleserial/simpleserial.c **** 	simpleserial_addcmd('v', 0, check_version);
 1685              		.loc 1 136 1 is_stmt 0 view .LVU568
 1686 0000 10B5     		push	{r4, lr}
 1687              	.LCFI9:
 1688              		.cfi_def_cfa_offset 8
 1689              		.cfi_offset 4, -8
 1690              		.cfi_offset 14, -4
 1691              	.LBB46:
 1692              	.LBB44:
 143:.././simpleserial/simpleserial.c **** 		putch('a');
 1693              		.loc 1 143 18 view .LVU569
 1694 0002 154C     		ldr	r4, .L153
 1695 0004 2368     		ldr	r3, [r4]
 143:.././simpleserial/simpleserial.c **** 		putch('a');
 1696              		.loc 1 143 4 view .LVU570
 1697 0006 0F2B     		cmp	r3, #15
 1698 0008 1CDC     		bgt	.L151
 148:.././simpleserial/simpleserial.c **** 		putch('b');
 1699              		.loc 1 148 2 is_stmt 1 view .LVU571
 153:.././simpleserial/simpleserial.c **** 	commands[num_commands].len = len;
 1700              		.loc 1 153 2 view .LVU572
 153:.././simpleserial/simpleserial.c **** 	commands[num_commands].len = len;
 1701              		.loc 1 153 29 is_stmt 0 view .LVU573
 1702 000a 7620     		movs	r0, #118
 1703 000c 5A00     		lsls	r2, r3, #1
 1704 000e 1349     		ldr	r1, .L153+4
 1705 0010 D218     		adds	r2, r2, r3
 1706 0012 9200     		lsls	r2, r2, #2
 1707 0014 5054     		strb	r0, [r2, r1]
 154:.././simpleserial/simpleserial.c **** 	commands[num_commands].fp  = fp;
 1708              		.loc 1 154 2 is_stmt 1 view .LVU574
 154:.././simpleserial/simpleserial.c **** 	commands[num_commands].fp  = fp;
 1709              		.loc 1 154 29 is_stmt 0 view .LVU575
 1710 0016 8A18     		adds	r2, r1, r2
 1711 0018 0021     		movs	r1, #0
 1712 001a 5160     		str	r1, [r2, #4]
 155:.././simpleserial/simpleserial.c **** 	num_commands++;
 1713              		.loc 1 155 2 is_stmt 1 view .LVU576
 155:.././simpleserial/simpleserial.c **** 	num_commands++;
 1714              		.loc 1 155 29 is_stmt 0 view .LVU577
 1715 001c 1049     		ldr	r1, .L153+8
 156:.././simpleserial/simpleserial.c **** 
 1716              		.loc 1 156 14 view .LVU578
 1717 001e 0133     		adds	r3, r3, #1
 155:.././simpleserial/simpleserial.c **** 	num_commands++;
 1718              		.loc 1 155 29 view .LVU579
 1719 0020 9160     		str	r1, [r2, #8]
 156:.././simpleserial/simpleserial.c **** 
 1720              		.loc 1 156 2 is_stmt 1 view .LVU580
 156:.././simpleserial/simpleserial.c **** 
 1721              		.loc 1 156 14 is_stmt 0 view .LVU581
 1722 0022 2360     		str	r3, [r4]
 158:.././simpleserial/simpleserial.c **** }
 1723              		.loc 1 158 2 is_stmt 1 view .LVU582
 1724              	.LVL199:
 158:.././simpleserial/simpleserial.c **** }
 1725              		.loc 1 158 2 is_stmt 0 view .LVU583
 1726              	.LBE44:
 1727              	.LBE46:
 138:.././simpleserial/simpleserial.c **** }
 1728              		.loc 1 138 5 is_stmt 1 view .LVU584
 1729              	.LBB47:
 1730              	.LBI47:
 141:.././simpleserial/simpleserial.c **** {
 1731              		.loc 1 141 5 view .LVU585
 1732              	.LBB48:
 143:.././simpleserial/simpleserial.c **** 		putch('a');
 1733              		.loc 1 143 2 view .LVU586
 143:.././simpleserial/simpleserial.c **** 		putch('a');
 1734              		.loc 1 143 4 is_stmt 0 view .LVU587
 1735 0024 0F2B     		cmp	r3, #15
 1736 0026 13DC     		bgt	.L152
 1737              	.L149:
 148:.././simpleserial/simpleserial.c **** 		putch('b');
 1738              		.loc 1 148 2 is_stmt 1 view .LVU588
 153:.././simpleserial/simpleserial.c **** 	commands[num_commands].len = len;
 1739              		.loc 1 153 2 view .LVU589
 153:.././simpleserial/simpleserial.c **** 	commands[num_commands].len = len;
 1740              		.loc 1 153 29 is_stmt 0 view .LVU590
 1741 0028 7720     		movs	r0, #119
 1742 002a 5A00     		lsls	r2, r3, #1
 1743 002c 0B49     		ldr	r1, .L153+4
 1744 002e D218     		adds	r2, r2, r3
 1745 0030 9200     		lsls	r2, r2, #2
 1746 0032 5054     		strb	r0, [r2, r1]
 154:.././simpleserial/simpleserial.c **** 	commands[num_commands].fp  = fp;
 1747              		.loc 1 154 2 is_stmt 1 view .LVU591
 154:.././simpleserial/simpleserial.c **** 	commands[num_commands].fp  = fp;
 1748              		.loc 1 154 29 is_stmt 0 view .LVU592
 1749 0034 8A18     		adds	r2, r1, r2
 1750 0036 0021     		movs	r1, #0
 1751 0038 5160     		str	r1, [r2, #4]
 155:.././simpleserial/simpleserial.c **** 	num_commands++;
 1752              		.loc 1 155 2 is_stmt 1 view .LVU593
 155:.././simpleserial/simpleserial.c **** 	num_commands++;
 1753              		.loc 1 155 29 is_stmt 0 view .LVU594
 1754 003a 0A49     		ldr	r1, .L153+12
 156:.././simpleserial/simpleserial.c **** 
 1755              		.loc 1 156 14 view .LVU595
 1756 003c 0133     		adds	r3, r3, #1
 155:.././simpleserial/simpleserial.c **** 	num_commands++;
 1757              		.loc 1 155 29 view .LVU596
 1758 003e 9160     		str	r1, [r2, #8]
 156:.././simpleserial/simpleserial.c **** 
 1759              		.loc 1 156 2 is_stmt 1 view .LVU597
 156:.././simpleserial/simpleserial.c **** 
 1760              		.loc 1 156 14 is_stmt 0 view .LVU598
 1761 0040 2360     		str	r3, [r4]
 158:.././simpleserial/simpleserial.c **** }
 1762              		.loc 1 158 2 is_stmt 1 view .LVU599
 1763              	.LVL200:
 1764              	.L146:
 158:.././simpleserial/simpleserial.c **** }
 1765              		.loc 1 158 2 is_stmt 0 view .LVU600
 1766              	.LBE48:
 1767              	.LBE47:
 139:.././simpleserial/simpleserial.c **** 
 1768              		.loc 1 139 1 view .LVU601
 1769              		@ sp needed
 1770 0042 10BD     		pop	{r4, pc}
 1771              	.LVL201:
 1772              	.L151:
 1773              	.LBB51:
 1774              	.LBB45:
 144:.././simpleserial/simpleserial.c **** 		return 1;
 1775              		.loc 1 144 3 is_stmt 1 view .LVU602
 1776 0044 6120     		movs	r0, #97
 1777 0046 FFF7FEFF 		bl	putch
 1778              	.LVL202:
 145:.././simpleserial/simpleserial.c **** 	}
 1779              		.loc 1 145 3 view .LVU603
 1780              	.LBE45:
 1781              	.LBE51:
 1782              	.LBB52:
 1783              	.LBB49:
 143:.././simpleserial/simpleserial.c **** 		putch('a');
 1784              		.loc 1 143 18 is_stmt 0 view .LVU604
 1785 004a 2368     		ldr	r3, [r4]
 1786              	.LVL203:
 143:.././simpleserial/simpleserial.c **** 		putch('a');
 1787              		.loc 1 143 18 view .LVU605
 1788              	.LBE49:
 1789              	.LBE52:
 138:.././simpleserial/simpleserial.c **** }
 1790              		.loc 1 138 5 is_stmt 1 view .LVU606
 1791              	.LBB53:
 141:.././simpleserial/simpleserial.c **** {
 1792              		.loc 1 141 5 view .LVU607
 1793              	.LBB50:
 143:.././simpleserial/simpleserial.c **** 		putch('a');
 1794              		.loc 1 143 2 view .LVU608
 143:.././simpleserial/simpleserial.c **** 		putch('a');
 1795              		.loc 1 143 4 is_stmt 0 view .LVU609
 1796 004c 0F2B     		cmp	r3, #15
 1797 004e EBDD     		ble	.L149
 1798              	.L152:
 144:.././simpleserial/simpleserial.c **** 		return 1;
 1799              		.loc 1 144 3 is_stmt 1 view .LVU610
 1800 0050 6120     		movs	r0, #97
 1801 0052 FFF7FEFF 		bl	putch
 1802              	.LVL204:
 145:.././simpleserial/simpleserial.c **** 	}
 1803              		.loc 1 145 3 view .LVU611
 145:.././simpleserial/simpleserial.c **** 	}
 1804              		.loc 1 145 10 is_stmt 0 view .LVU612
 1805 0056 F4E7     		b	.L146
 1806              	.L154:
 1807              		.align	2
 1808              	.L153:
 1809 0058 00000000 		.word	.LANCHOR0
 1810 005c 04000000 		.word	commands
 1811 0060 00000000 		.word	check_version
 1812 0064 00000000 		.word	ss_get_commands
 1813              	.LBE50:
 1814              	.LBE53:
 1815              		.cfi_endproc
 1816              	.LFE7:
 1818              		.section	.text.simpleserial_addcmd,"ax",%progbits
 1819              		.align	1
 1820              		.p2align 2,,3
 1821              		.global	simpleserial_addcmd
 1822              		.syntax unified
 1823              		.code	16
 1824              		.thumb_func
 1825              		.fpu softvfp
 1827              	simpleserial_addcmd:
 1828              	.LVL205:
 1829              	.LFB8:
 142:.././simpleserial/simpleserial.c **** 	if(num_commands >= MAX_SS_CMDS) {
 1830              		.loc 1 142 1 is_stmt 1 view -0
 1831              		.cfi_startproc
 1832              		@ args = 0, pretend = 0, frame = 0
 1833              		@ frame_needed = 0, uses_anonymous_args = 0
 143:.././simpleserial/simpleserial.c **** 		putch('a');
 1834              		.loc 1 143 2 view .LVU614
 142:.././simpleserial/simpleserial.c **** 	if(num_commands >= MAX_SS_CMDS) {
 1835              		.loc 1 142 1 is_stmt 0 view .LVU615
 1836 0000 70B5     		push	{r4, r5, r6, lr}
 1837              	.LCFI10:
 1838              		.cfi_def_cfa_offset 16
 1839              		.cfi_offset 4, -16
 1840              		.cfi_offset 5, -12
 1841              		.cfi_offset 6, -8
 1842              		.cfi_offset 14, -4
 143:.././simpleserial/simpleserial.c **** 		putch('a');
 1843              		.loc 1 143 18 view .LVU616
 1844 0002 0E4E     		ldr	r6, .L161
 1845 0004 3368     		ldr	r3, [r6]
 143:.././simpleserial/simpleserial.c **** 		putch('a');
 1846              		.loc 1 143 4 view .LVU617
 1847 0006 0F2B     		cmp	r3, #15
 1848 0008 0DDC     		bgt	.L159
 148:.././simpleserial/simpleserial.c **** 		putch('b');
 1849              		.loc 1 148 2 is_stmt 1 view .LVU618
 148:.././simpleserial/simpleserial.c **** 		putch('b');
 1850              		.loc 1 148 4 is_stmt 0 view .LVU619
 1851 000a FF29     		cmp	r1, #255
 1852 000c 10D8     		bhi	.L160
 153:.././simpleserial/simpleserial.c **** 	commands[num_commands].len = len;
 1853              		.loc 1 153 2 is_stmt 1 view .LVU620
 153:.././simpleserial/simpleserial.c **** 	commands[num_commands].len = len;
 1854              		.loc 1 153 29 is_stmt 0 view .LVU621
 1855 000e 5C00     		lsls	r4, r3, #1
 1856 0010 0B4D     		ldr	r5, .L161+4
 1857 0012 E418     		adds	r4, r4, r3
 1858 0014 A400     		lsls	r4, r4, #2
 1859 0016 6055     		strb	r0, [r4, r5]
 154:.././simpleserial/simpleserial.c **** 	commands[num_commands].fp  = fp;
 1860              		.loc 1 154 2 is_stmt 1 view .LVU622
 158:.././simpleserial/simpleserial.c **** }
 1861              		.loc 1 158 9 is_stmt 0 view .LVU623
 1862 0018 0020     		movs	r0, #0
 1863              	.LVL206:
 154:.././simpleserial/simpleserial.c **** 	commands[num_commands].fp  = fp;
 1864              		.loc 1 154 29 view .LVU624
 1865 001a 2C19     		adds	r4, r5, r4
 1866              	.LVL207:
 156:.././simpleserial/simpleserial.c **** 
 1867              		.loc 1 156 14 view .LVU625
 1868 001c 0133     		adds	r3, r3, #1
 154:.././simpleserial/simpleserial.c **** 	commands[num_commands].fp  = fp;
 1869              		.loc 1 154 29 view .LVU626
 1870 001e 6160     		str	r1, [r4, #4]
 155:.././simpleserial/simpleserial.c **** 	num_commands++;
 1871              		.loc 1 155 2 is_stmt 1 view .LVU627
 155:.././simpleserial/simpleserial.c **** 	num_commands++;
 1872              		.loc 1 155 29 is_stmt 0 view .LVU628
 1873 0020 A260     		str	r2, [r4, #8]
 156:.././simpleserial/simpleserial.c **** 
 1874              		.loc 1 156 2 is_stmt 1 view .LVU629
 156:.././simpleserial/simpleserial.c **** 
 1875              		.loc 1 156 14 is_stmt 0 view .LVU630
 1876 0022 3360     		str	r3, [r6]
 158:.././simpleserial/simpleserial.c **** }
 1877              		.loc 1 158 2 is_stmt 1 view .LVU631
 1878              	.LVL208:
 1879              	.L155:
 159:.././simpleserial/simpleserial.c **** 
 1880              		.loc 1 159 1 is_stmt 0 view .LVU632
 1881              		@ sp needed
 1882 0024 70BD     		pop	{r4, r5, r6, pc}
 1883              	.LVL209:
 1884              	.L159:
 144:.././simpleserial/simpleserial.c **** 		return 1;
 1885              		.loc 1 144 3 is_stmt 1 view .LVU633
 1886 0026 6120     		movs	r0, #97
 1887              	.LVL210:
 144:.././simpleserial/simpleserial.c **** 		return 1;
 1888              		.loc 1 144 3 is_stmt 0 view .LVU634
 1889 0028 FFF7FEFF 		bl	putch
 1890              	.LVL211:
 145:.././simpleserial/simpleserial.c **** 	}
 1891              		.loc 1 145 3 is_stmt 1 view .LVU635
 145:.././simpleserial/simpleserial.c **** 	}
 1892              		.loc 1 145 10 is_stmt 0 view .LVU636
 1893 002c 0120     		movs	r0, #1
 1894 002e F9E7     		b	.L155
 1895              	.LVL212:
 1896              	.L160:
 149:.././simpleserial/simpleserial.c **** 		return 1;
 1897              		.loc 1 149 3 is_stmt 1 view .LVU637
 1898 0030 6220     		movs	r0, #98
 1899              	.LVL213:
 149:.././simpleserial/simpleserial.c **** 		return 1;
 1900              		.loc 1 149 3 is_stmt 0 view .LVU638
 1901 0032 FFF7FEFF 		bl	putch
 1902              	.LVL214:
 150:.././simpleserial/simpleserial.c **** 	}
 1903              		.loc 1 150 3 is_stmt 1 view .LVU639
 150:.././simpleserial/simpleserial.c **** 	}
 1904              		.loc 1 150 10 is_stmt 0 view .LVU640
 1905 0036 0120     		movs	r0, #1
 1906 0038 F4E7     		b	.L155
 1907              	.L162:
 1908 003a C046     		.align	2
 1909              	.L161:
 1910 003c 00000000 		.word	.LANCHOR0
 1911 0040 04000000 		.word	commands
 1912              		.cfi_endproc
 1913              	.LFE8:
 1915              		.section	.text.simpleserial_get,"ax",%progbits
 1916              		.align	1
 1917              		.p2align 2,,3
 1918              		.global	simpleserial_get
 1919              		.syntax unified
 1920              		.code	16
 1921              		.thumb_func
 1922              		.fpu softvfp
 1924              	simpleserial_get:
 1925              	.LFB9:
 162:.././simpleserial/simpleserial.c **** 	uint8_t data_buf[MAX_SS_LEN];
 1926              		.loc 1 162 1 is_stmt 1 view -0
 1927              		.cfi_startproc
 1928              		@ args = 0, pretend = 0, frame = 264
 1929              		@ frame_needed = 0, uses_anonymous_args = 0
 163:.././simpleserial/simpleserial.c **** 	uint8_t err = 0;
 1930              		.loc 1 163 2 view .LVU642
 164:.././simpleserial/simpleserial.c **** 
 1931              		.loc 1 164 2 view .LVU643
 162:.././simpleserial/simpleserial.c **** 	uint8_t data_buf[MAX_SS_LEN];
 1932              		.loc 1 162 1 is_stmt 0 view .LVU644
 1933 0000 F0B5     		push	{r4, r5, r6, r7, lr}
 1934              	.LCFI11:
 1935              		.cfi_def_cfa_offset 20
 1936              		.cfi_offset 4, -20
 1937              		.cfi_offset 5, -16
 1938              		.cfi_offset 6, -12
 1939              		.cfi_offset 7, -8
 1940              		.cfi_offset 14, -4
 1941 0002 DE46     		mov	lr, fp
 1942 0004 4546     		mov	r5, r8
 1943 0006 5746     		mov	r7, r10
 1944 0008 4E46     		mov	r6, r9
 1945 000a E0B5     		push	{r5, r6, r7, lr}
 1946              	.LCFI12:
 1947              		.cfi_def_cfa_offset 36
 1948              		.cfi_offset 8, -36
 1949              		.cfi_offset 9, -32
 1950              		.cfi_offset 10, -28
 1951              		.cfi_offset 11, -24
 1952 000c C3B0     		sub	sp, sp, #268
 1953              	.LCFI13:
 1954              		.cfi_def_cfa_offset 304
 164:.././simpleserial/simpleserial.c **** 
 1955              		.loc 1 164 10 view .LVU645
 1956 000e 0023     		movs	r3, #0
 1957 0010 6A46     		mov	r2, sp
 1958 0012 02AD     		add	r5, sp, #8
 1959 0014 D371     		strb	r3, [r2, #7]
 166:.././simpleserial/simpleserial.c **** 		data_buf[i] = getch(); //PTR, cmd, scmd, len
 1960              		.loc 1 166 2 is_stmt 1 view .LVU646
 1961              	.LBB54:
 166:.././simpleserial/simpleserial.c **** 		data_buf[i] = getch(); //PTR, cmd, scmd, len
 1962              		.loc 1 166 7 view .LVU647
 1963              	.LVL215:
 166:.././simpleserial/simpleserial.c **** 		data_buf[i] = getch(); //PTR, cmd, scmd, len
 1964              		.loc 1 166 18 view .LVU648
 1965 0016 03AB     		add	r3, sp, #12
 1966 0018 2C00     		movs	r4, r5
 1967 001a 9B46     		mov	fp, r3
 1968              	.LVL216:
 1969              	.L166:
 167:.././simpleserial/simpleserial.c **** 		if (data_buf[i] == FRAME_BYTE) {
 1970              		.loc 1 167 3 view .LVU649
 167:.././simpleserial/simpleserial.c **** 		if (data_buf[i] == FRAME_BYTE) {
 1971              		.loc 1 167 17 is_stmt 0 view .LVU650
 1972 001c FFF7FEFF 		bl	getch
 1973              	.LVL217:
 167:.././simpleserial/simpleserial.c **** 		if (data_buf[i] == FRAME_BYTE) {
 1974              		.loc 1 167 15 view .LVU651
 1975 0020 2070     		strb	r0, [r4]
 168:.././simpleserial/simpleserial.c **** 			err = SS_ERR_FRAME_BYTE;
 1976              		.loc 1 168 3 is_stmt 1 view .LVU652
 168:.././simpleserial/simpleserial.c **** 			err = SS_ERR_FRAME_BYTE;
 1977              		.loc 1 168 6 is_stmt 0 view .LVU653
 1978 0022 0028     		cmp	r0, #0
 1979 0024 4FD0     		beq	.L175
 166:.././simpleserial/simpleserial.c **** 		data_buf[i] = getch(); //PTR, cmd, scmd, len
 1980              		.loc 1 166 25 is_stmt 1 discriminator 2 view .LVU654
 1981              	.LVL218:
 166:.././simpleserial/simpleserial.c **** 		data_buf[i] = getch(); //PTR, cmd, scmd, len
 1982              		.loc 1 166 18 discriminator 2 view .LVU655
 166:.././simpleserial/simpleserial.c **** 		data_buf[i] = getch(); //PTR, cmd, scmd, len
 1983              		.loc 1 166 2 is_stmt 0 discriminator 2 view .LVU656
 1984 0026 0134     		adds	r4, r4, #1
 1985              	.LVL219:
 166:.././simpleserial/simpleserial.c **** 		data_buf[i] = getch(); //PTR, cmd, scmd, len
 1986              		.loc 1 166 2 discriminator 2 view .LVU657
 1987 0028 A345     		cmp	fp, r4
 1988 002a F7D1     		bne	.L166
 1989              	.LBE54:
 173:.././simpleserial/simpleserial.c **** 
 1990              		.loc 1 173 2 is_stmt 1 view .LVU658
 1991              	.LVL220:
 1992              	.LBB55:
 1993              	.LBI55:
 119:.././simpleserial/simpleserial.c **** {
 1994              		.loc 1 119 9 view .LVU659
 1995              	.LBB56:
 121:.././simpleserial/simpleserial.c **** 	buf[0] = 0x00;
 1996              		.loc 1 121 2 view .LVU660
 122:.././simpleserial/simpleserial.c **** 	//len -= 1;
 1997              		.loc 1 122 9 is_stmt 0 view .LVU661
 1998 002c 0023     		movs	r3, #0
 121:.././simpleserial/simpleserial.c **** 	buf[0] = 0x00;
 1999              		.loc 1 121 10 view .LVU662
 2000 002e 2C78     		ldrb	r4, [r5]
 2001              	.LVL221:
 122:.././simpleserial/simpleserial.c **** 	//len -= 1;
 2002              		.loc 1 122 2 is_stmt 1 view .LVU663
 122:.././simpleserial/simpleserial.c **** 	//len -= 1;
 2003              		.loc 1 122 9 is_stmt 0 view .LVU664
 2004 0030 2B70     		strb	r3, [r5]
 124:.././simpleserial/simpleserial.c **** 	while ((next < len) && tmp != 0) {
 2005              		.loc 1 124 2 is_stmt 1 view .LVU665
 2006              	.LVL222:
 125:.././simpleserial/simpleserial.c **** 		tmp = buf[next];
 2007              		.loc 1 125 2 view .LVU666
 125:.././simpleserial/simpleserial.c **** 		tmp = buf[next];
 2008              		.loc 1 125 8 view .LVU667
 2009 0032 032C     		cmp	r4, #3
 2010 0034 0CD8     		bhi	.L167
 125:.././simpleserial/simpleserial.c **** 		tmp = buf[next];
 2011              		.loc 1 125 22 is_stmt 0 view .LVU668
 2012 0036 002C     		cmp	r4, #0
 2013 0038 0AD0     		beq	.L167
 127:.././simpleserial/simpleserial.c **** 		next += tmp;
 2014              		.loc 1 127 13 view .LVU669
 2015 003a 0021     		movs	r1, #0
 2016 003c 01E0     		b	.L171
 2017              	.LVL223:
 2018              	.L168:
 125:.././simpleserial/simpleserial.c **** 		tmp = buf[next];
 2019              		.loc 1 125 22 view .LVU670
 2020 003e 002B     		cmp	r3, #0
 2021 0040 06D0     		beq	.L167
 2022              	.LVL224:
 2023              	.L171:
 126:.././simpleserial/simpleserial.c **** 		buf[next] = FRAME_BYTE;
 2024              		.loc 1 126 3 is_stmt 1 view .LVU671
 126:.././simpleserial/simpleserial.c **** 		buf[next] = FRAME_BYTE;
 2025              		.loc 1 126 7 is_stmt 0 view .LVU672
 2026 0042 2B5D     		ldrb	r3, [r5, r4]
 2027              	.LVL225:
 127:.././simpleserial/simpleserial.c **** 		next += tmp;
 2028              		.loc 1 127 3 is_stmt 1 view .LVU673
 126:.././simpleserial/simpleserial.c **** 		buf[next] = FRAME_BYTE;
 2029              		.loc 1 126 12 is_stmt 0 view .LVU674
 2030 0044 2A19     		adds	r2, r5, r4
 128:.././simpleserial/simpleserial.c **** 	}
 2031              		.loc 1 128 8 view .LVU675
 2032 0046 1C19     		adds	r4, r3, r4
 2033              	.LVL226:
 128:.././simpleserial/simpleserial.c **** 	}
 2034              		.loc 1 128 8 view .LVU676
 2035 0048 E4B2     		uxtb	r4, r4
 127:.././simpleserial/simpleserial.c **** 		next += tmp;
 2036              		.loc 1 127 13 view .LVU677
 2037 004a 1170     		strb	r1, [r2]
 128:.././simpleserial/simpleserial.c **** 	}
 2038              		.loc 1 128 3 is_stmt 1 view .LVU678
 2039              	.LVL227:
 125:.././simpleserial/simpleserial.c **** 		tmp = buf[next];
 2040              		.loc 1 125 8 view .LVU679
 2041 004c 032C     		cmp	r4, #3
 2042 004e F6D9     		bls	.L168
 2043              	.LVL228:
 2044              	.L167:
 125:.././simpleserial/simpleserial.c **** 		tmp = buf[next];
 2045              		.loc 1 125 8 is_stmt 0 view .LVU680
 2046              	.LBE56:
 2047              	.LBE55:
 177:.././simpleserial/simpleserial.c **** 	{
 2048              		.loc 1 177 13 is_stmt 1 discriminator 1 view .LVU681
 177:.././simpleserial/simpleserial.c **** 	{
 2049              		.loc 1 177 15 is_stmt 0 discriminator 1 view .LVU682
 2050 0050 6C4B     		ldr	r3, .L228
 2051 0052 0027     		movs	r7, #0
 2052 0054 1968     		ldr	r1, [r3]
 177:.././simpleserial/simpleserial.c **** 	{
 2053              		.loc 1 177 2 discriminator 1 view .LVU683
 2054 0056 0029     		cmp	r1, #0
 2055 0058 39DD     		ble	.L170
 179:.././simpleserial/simpleserial.c **** 			break;
 2056              		.loc 1 179 31 view .LVU684
 2057 005a 0022     		movs	r2, #0
 177:.././simpleserial/simpleserial.c **** 	{
 2058              		.loc 1 177 15 view .LVU685
 2059 005c 0027     		movs	r7, #0
 179:.././simpleserial/simpleserial.c **** 			break;
 2060              		.loc 1 179 31 view .LVU686
 2061 005e 6E78     		ldrb	r6, [r5, #1]
 2062 0060 6948     		ldr	r0, .L228+4
 2063 0062 04E0     		b	.L173
 2064              	.LVL229:
 2065              	.L216:
 177:.././simpleserial/simpleserial.c **** 	{
 2066              		.loc 1 177 31 is_stmt 1 discriminator 2 view .LVU687
 177:.././simpleserial/simpleserial.c **** 	{
 2067              		.loc 1 177 32 is_stmt 0 discriminator 2 view .LVU688
 2068 0064 0132     		adds	r2, r2, #1
 2069              	.LVL230:
 177:.././simpleserial/simpleserial.c **** 	{
 2070              		.loc 1 177 32 discriminator 2 view .LVU689
 2071 0066 D2B2     		uxtb	r2, r2
 2072              	.LVL231:
 177:.././simpleserial/simpleserial.c **** 	{
 2073              		.loc 1 177 13 is_stmt 1 discriminator 2 view .LVU690
 177:.././simpleserial/simpleserial.c **** 	{
 2074              		.loc 1 177 15 is_stmt 0 discriminator 2 view .LVU691
 2075 0068 1700     		movs	r7, r2
 177:.././simpleserial/simpleserial.c **** 	{
 2076              		.loc 1 177 2 discriminator 2 view .LVU692
 2077 006a 8A42     		cmp	r2, r1
 2078 006c 2FDA     		bge	.L170
 2079              	.LVL232:
 2080              	.L173:
 179:.././simpleserial/simpleserial.c **** 			break;
 2081              		.loc 1 179 3 is_stmt 1 view .LVU693
 179:.././simpleserial/simpleserial.c **** 			break;
 2082              		.loc 1 179 17 is_stmt 0 view .LVU694
 2083 006e 7B00     		lsls	r3, r7, #1
 2084 0070 DB19     		adds	r3, r3, r7
 2085 0072 9B00     		lsls	r3, r3, #2
 179:.././simpleserial/simpleserial.c **** 			break;
 2086              		.loc 1 179 5 view .LVU695
 2087 0074 C35C     		ldrb	r3, [r0, r3]
 2088 0076 B342     		cmp	r3, r6
 2089 0078 F4D1     		bne	.L216
 2090              	.LVL233:
 2091              	.L172:
 190:.././simpleserial/simpleserial.c **** 		err = SS_ERR_LEN;
 2092              		.loc 1 190 2 is_stmt 1 view .LVU696
 197:.././simpleserial/simpleserial.c **** 	for (; i < data_buf[3] + 5; i++) {
 2093              		.loc 1 197 6 is_stmt 0 view .LVU697
 2094 007a 0422     		movs	r2, #4
 190:.././simpleserial/simpleserial.c **** 		err = SS_ERR_LEN;
 2095              		.loc 1 190 15 view .LVU698
 2096 007c EB78     		ldrb	r3, [r5, #3]
 2097 007e D846     		mov	r8, fp
 190:.././simpleserial/simpleserial.c **** 		err = SS_ERR_LEN;
 2098              		.loc 1 190 19 view .LVU699
 2099 0080 0533     		adds	r3, r3, #5
 197:.././simpleserial/simpleserial.c **** 	for (; i < data_buf[3] + 5; i++) {
 2100              		.loc 1 197 6 view .LVU700
 2101 0082 9146     		mov	r9, r2
 190:.././simpleserial/simpleserial.c **** 		err = SS_ERR_LEN;
 2102              		.loc 1 190 5 view .LVU701
 2103 0084 A342     		cmp	r3, r4
 2104 0086 18DA     		bge	.L176
 2105              	.L177:
 191:.././simpleserial/simpleserial.c **** 		goto ERROR;
 2106              		.loc 1 191 3 is_stmt 1 view .LVU702
 191:.././simpleserial/simpleserial.c **** 		goto ERROR;
 2107              		.loc 1 191 7 is_stmt 0 view .LVU703
 2108 0088 0423     		movs	r3, #4
 2109 008a 6A46     		mov	r2, sp
 2110 008c D371     		strb	r3, [r2, #7]
 192:.././simpleserial/simpleserial.c **** 	}
 2111              		.loc 1 192 3 is_stmt 1 view .LVU704
 2112              	.L165:
 226:.././simpleserial/simpleserial.c **** 	return;
 2113              		.loc 1 226 2 view .LVU705
 2114 008e 6B46     		mov	r3, sp
 2115 0090 6520     		movs	r0, #101
 2116 0092 D91D     		adds	r1, r3, #7
 2117 0094 FFF7FEFF 		bl	simpleserial_put.constprop.0
 2118              	.LVL234:
 227:.././simpleserial/simpleserial.c **** }
 2119              		.loc 1 227 2 view .LVU706
 228:.././simpleserial/simpleserial.c **** 
 2120              		.loc 1 228 1 is_stmt 0 view .LVU707
 2121 0098 43B0     		add	sp, sp, #268
 2122              		@ sp needed
 2123 009a F0BC     		pop	{r4, r5, r6, r7}
 2124 009c BB46     		mov	fp, r7
 2125 009e B246     		mov	r10, r6
 2126 00a0 A946     		mov	r9, r5
 2127 00a2 A046     		mov	r8, r4
 2128 00a4 F0BD     		pop	{r4, r5, r6, r7, pc}
 2129              	.LVL235:
 2130              	.L218:
 198:.././simpleserial/simpleserial.c **** 		data_buf[i] = getch();
 2131              		.loc 1 198 30 is_stmt 1 view .LVU708
 198:.././simpleserial/simpleserial.c **** 		data_buf[i] = getch();
 2132              		.loc 1 198 31 is_stmt 0 view .LVU709
 2133 00a6 4B46     		mov	r3, r9
 2134 00a8 5E1C     		adds	r6, r3, #1
 2135              	.LVL236:
 198:.././simpleserial/simpleserial.c **** 		data_buf[i] = getch();
 2136              		.loc 1 198 9 is_stmt 1 view .LVU710
 198:.././simpleserial/simpleserial.c **** 		data_buf[i] = getch();
 2137              		.loc 1 198 2 is_stmt 0 view .LVU711
 2138 00aa 0123     		movs	r3, #1
 2139 00ac 9C46     		mov	ip, r3
 198:.././simpleserial/simpleserial.c **** 		data_buf[i] = getch();
 2140              		.loc 1 198 21 view .LVU712
 2141 00ae EB78     		ldrb	r3, [r5, #3]
 198:.././simpleserial/simpleserial.c **** 		data_buf[i] = getch();
 2142              		.loc 1 198 2 view .LVU713
 2143 00b0 E044     		add	r8, r8, ip
 198:.././simpleserial/simpleserial.c **** 		data_buf[i] = getch();
 2144              		.loc 1 198 11 view .LVU714
 2145 00b2 0433     		adds	r3, r3, #4
 198:.././simpleserial/simpleserial.c **** 		data_buf[i] = getch();
 2146              		.loc 1 198 2 view .LVU715
 2147 00b4 B342     		cmp	r3, r6
 2148 00b6 10DB     		blt	.L217
 2149 00b8 B146     		mov	r9, r6
 2150              	.LVL237:
 2151              	.L176:
 199:.././simpleserial/simpleserial.c **** 		if (data_buf[i] == FRAME_BYTE) {
 2152              		.loc 1 199 3 is_stmt 1 view .LVU716
 199:.././simpleserial/simpleserial.c **** 		if (data_buf[i] == FRAME_BYTE) {
 2153              		.loc 1 199 17 is_stmt 0 view .LVU717
 2154 00ba FFF7FEFF 		bl	getch
 2155              	.LVL238:
 199:.././simpleserial/simpleserial.c **** 		if (data_buf[i] == FRAME_BYTE) {
 2156              		.loc 1 199 15 view .LVU718
 2157 00be 4346     		mov	r3, r8
 2158 00c0 1870     		strb	r0, [r3]
 200:.././simpleserial/simpleserial.c **** 			err = SS_ERR_FRAME_BYTE;
 2159              		.loc 1 200 3 is_stmt 1 view .LVU719
 200:.././simpleserial/simpleserial.c **** 			err = SS_ERR_FRAME_BYTE;
 2160              		.loc 1 200 6 is_stmt 0 view .LVU720
 2161 00c2 0028     		cmp	r0, #0
 2162 00c4 EFD1     		bne	.L218
 2163              	.LVL239:
 2164              	.L175:
 2165              	.LBB57:
 169:.././simpleserial/simpleserial.c **** 			goto ERROR;
 2166              		.loc 1 169 4 is_stmt 1 view .LVU721
 169:.././simpleserial/simpleserial.c **** 			goto ERROR;
 2167              		.loc 1 169 8 is_stmt 0 view .LVU722
 2168 00c6 0523     		movs	r3, #5
 2169 00c8 6A46     		mov	r2, sp
 2170 00ca D371     		strb	r3, [r2, #7]
 170:.././simpleserial/simpleserial.c **** 		}
 2171              		.loc 1 170 4 is_stmt 1 view .LVU723
 2172 00cc DFE7     		b	.L165
 2173              	.L170:
 170:.././simpleserial/simpleserial.c **** 		}
 2174              		.loc 1 170 4 is_stmt 0 view .LVU724
 2175              	.LBE57:
 183:.././simpleserial/simpleserial.c **** 		err = SS_ERR_CMD;
 2176              		.loc 1 183 2 is_stmt 1 view .LVU725
 183:.././simpleserial/simpleserial.c **** 		err = SS_ERR_CMD;
 2177              		.loc 1 183 5 is_stmt 0 view .LVU726
 2178 00ce 8F42     		cmp	r7, r1
 2179 00d0 D3D1     		bne	.L172
 184:.././simpleserial/simpleserial.c **** 		goto ERROR;
 2180              		.loc 1 184 3 is_stmt 1 view .LVU727
 184:.././simpleserial/simpleserial.c **** 		goto ERROR;
 2181              		.loc 1 184 7 is_stmt 0 view .LVU728
 2182 00d2 0123     		movs	r3, #1
 2183 00d4 6A46     		mov	r2, sp
 2184 00d6 D371     		strb	r3, [r2, #7]
 185:.././simpleserial/simpleserial.c **** 	}
 2185              		.loc 1 185 3 is_stmt 1 view .LVU729
 2186 00d8 D9E7     		b	.L165
 2187              	.LVL240:
 2188              	.L217:
 207:.././simpleserial/simpleserial.c **** 	if (data_buf[i] != FRAME_BYTE) {
 2189              		.loc 1 207 2 view .LVU730
 207:.././simpleserial/simpleserial.c **** 	if (data_buf[i] != FRAME_BYTE) {
 2190              		.loc 1 207 16 is_stmt 0 view .LVU731
 2191 00da FFF7FEFF 		bl	getch
 2192              	.LVL241:
 207:.././simpleserial/simpleserial.c **** 	if (data_buf[i] != FRAME_BYTE) {
 2193              		.loc 1 207 14 view .LVU732
 2194 00de A855     		strb	r0, [r5, r6]
 208:.././simpleserial/simpleserial.c **** 		err = SS_ERR_LEN;
 2195              		.loc 1 208 2 is_stmt 1 view .LVU733
 208:.././simpleserial/simpleserial.c **** 		err = SS_ERR_LEN;
 2196              		.loc 1 208 5 is_stmt 0 view .LVU734
 2197 00e0 0028     		cmp	r0, #0
 2198 00e2 D1D1     		bne	.L177
 214:.././simpleserial/simpleserial.c **** 
 2199              		.loc 1 214 2 is_stmt 1 view .LVU735
 214:.././simpleserial/simpleserial.c **** 
 2200              		.loc 1 214 40 is_stmt 0 view .LVU736
 2201 00e4 F3B2     		uxtb	r3, r6
 2202 00e6 9A46     		mov	r10, r3
 214:.././simpleserial/simpleserial.c **** 
 2203              		.loc 1 214 2 view .LVU737
 2204 00e8 1B1B     		subs	r3, r3, r4
 2205 00ea 0133     		adds	r3, r3, #1
 2206 00ec DBB2     		uxtb	r3, r3
 2207 00ee 9C46     		mov	ip, r3
 2208              	.LBB58:
 2209              	.LBB59:
 121:.././simpleserial/simpleserial.c **** 	buf[0] = 0x00;
 2210              		.loc 1 121 10 view .LVU738
 2211 00f0 2B5D     		ldrb	r3, [r5, r4]
 2212              	.LBE59:
 2213              	.LBE58:
 214:.././simpleserial/simpleserial.c **** 
 2214              		.loc 1 214 2 view .LVU739
 2215 00f2 2A19     		adds	r2, r5, r4
 2216              	.LVL242:
 2217              	.LBB61:
 2218              	.LBI58:
 119:.././simpleserial/simpleserial.c **** {
 2219              		.loc 1 119 9 is_stmt 1 view .LVU740
 2220              	.LBB60:
 121:.././simpleserial/simpleserial.c **** 	buf[0] = 0x00;
 2221              		.loc 1 121 2 view .LVU741
 122:.././simpleserial/simpleserial.c **** 	//len -= 1;
 2222              		.loc 1 122 2 view .LVU742
 122:.././simpleserial/simpleserial.c **** 	//len -= 1;
 2223              		.loc 1 122 9 is_stmt 0 view .LVU743
 2224 00f4 1070     		strb	r0, [r2]
 124:.././simpleserial/simpleserial.c **** 	while ((next < len) && tmp != 0) {
 2225              		.loc 1 124 2 is_stmt 1 view .LVU744
 2226              	.LVL243:
 125:.././simpleserial/simpleserial.c **** 		tmp = buf[next];
 2227              		.loc 1 125 2 view .LVU745
 125:.././simpleserial/simpleserial.c **** 		tmp = buf[next];
 2228              		.loc 1 125 8 view .LVU746
 2229 00f6 9C45     		cmp	ip, r3
 2230 00f8 0ED9     		bls	.L180
 125:.././simpleserial/simpleserial.c **** 		tmp = buf[next];
 2231              		.loc 1 125 22 is_stmt 0 view .LVU747
 2232 00fa 002B     		cmp	r3, #0
 2233 00fc 0CD0     		beq	.L180
 127:.././simpleserial/simpleserial.c **** 		next += tmp;
 2234              		.loc 1 127 13 view .LVU748
 2235 00fe 0021     		movs	r1, #0
 2236 0100 8846     		mov	r8, r1
 2237 0102 01E0     		b	.L181
 2238              	.LVL244:
 2239              	.L219:
 125:.././simpleserial/simpleserial.c **** 		tmp = buf[next];
 2240              		.loc 1 125 22 view .LVU749
 2241 0104 0029     		cmp	r1, #0
 2242 0106 07D0     		beq	.L180
 2243              	.LVL245:
 2244              	.L181:
 126:.././simpleserial/simpleserial.c **** 		buf[next] = FRAME_BYTE;
 2245              		.loc 1 126 3 is_stmt 1 view .LVU750
 127:.././simpleserial/simpleserial.c **** 		next += tmp;
 2246              		.loc 1 127 13 is_stmt 0 view .LVU751
 2247 0108 4646     		mov	r6, r8
 126:.././simpleserial/simpleserial.c **** 		buf[next] = FRAME_BYTE;
 2248              		.loc 1 126 7 view .LVU752
 2249 010a D15C     		ldrb	r1, [r2, r3]
 2250              	.LVL246:
 127:.././simpleserial/simpleserial.c **** 		next += tmp;
 2251              		.loc 1 127 3 is_stmt 1 view .LVU753
 126:.././simpleserial/simpleserial.c **** 		buf[next] = FRAME_BYTE;
 2252              		.loc 1 126 12 is_stmt 0 view .LVU754
 2253 010c D418     		adds	r4, r2, r3
 128:.././simpleserial/simpleserial.c **** 	}
 2254              		.loc 1 128 8 view .LVU755
 2255 010e 5B18     		adds	r3, r3, r1
 2256              	.LVL247:
 128:.././simpleserial/simpleserial.c **** 	}
 2257              		.loc 1 128 8 view .LVU756
 2258 0110 DBB2     		uxtb	r3, r3
 127:.././simpleserial/simpleserial.c **** 		next += tmp;
 2259              		.loc 1 127 13 view .LVU757
 2260 0112 2670     		strb	r6, [r4]
 128:.././simpleserial/simpleserial.c **** 	}
 2261              		.loc 1 128 3 is_stmt 1 view .LVU758
 2262              	.LVL248:
 125:.././simpleserial/simpleserial.c **** 		tmp = buf[next];
 2263              		.loc 1 125 8 view .LVU759
 2264 0114 9C45     		cmp	ip, r3
 2265 0116 F5D8     		bhi	.L219
 2266              	.LVL249:
 2267              	.L180:
 130:.././simpleserial/simpleserial.c **** }
 2268              		.loc 1 130 2 view .LVU760
 130:.././simpleserial/simpleserial.c **** }
 2269              		.loc 1 130 2 is_stmt 0 view .LVU761
 2270              	.LBE60:
 2271              	.LBE61:
 217:.././simpleserial/simpleserial.c **** 	if (crc != data_buf[i-1]) {
 2272              		.loc 1 217 2 is_stmt 1 view .LVU762
 2273              	.LBB62:
 2274              	.LBI62:
  20:.././simpleserial/simpleserial.c **** {
 2275              		.loc 1 20 9 view .LVU763
 2276              	.LBB63:
  24:.././simpleserial/simpleserial.c **** 		crc ^= *buf++;
 2277              		.loc 1 24 8 view .LVU764
  24:.././simpleserial/simpleserial.c **** 		crc ^= *buf++;
 2278              		.loc 1 24 12 is_stmt 0 view .LVU765
 2279 0118 5246     		mov	r2, r10
 2280 011a 0924     		movs	r4, #9
 2281 011c 033A     		subs	r2, r2, #3
  27:.././simpleserial/simpleserial.c **** 		}
 2282              		.loc 1 27 34 view .LVU766
 2283 011e 4D21     		movs	r1, #77
  24:.././simpleserial/simpleserial.c **** 		crc ^= *buf++;
 2284              		.loc 1 24 12 view .LVU767
 2285 0120 D2B2     		uxtb	r2, r2
 2286              	.LVL250:
  24:.././simpleserial/simpleserial.c **** 		crc ^= *buf++;
 2287              		.loc 1 24 12 view .LVU768
 2288 0122 6C44     		add	r4, r4, sp
 2289 0124 2AE0     		b	.L179
 2290              	.LVL251:
 2291              	.L221:
  27:.././simpleserial/simpleserial.c **** 		}
 2292              		.loc 1 27 8 view .LVU769
 2293 0126 5800     		lsls	r0, r3, #1
 2294 0128 C3B2     		uxtb	r3, r0
 2295              	.LVL252:
  27:.././simpleserial/simpleserial.c **** 		}
 2296              		.loc 1 27 21 view .LVU770
 2297 012a 40B2     		sxtb	r0, r0
 2298              	.LVL253:
  26:.././simpleserial/simpleserial.c **** 			crc = crc & 0x80 ? (crc << 1) ^ CW_CRC: crc << 1;
 2299              		.loc 1 26 22 is_stmt 1 view .LVU771
  26:.././simpleserial/simpleserial.c **** 			crc = crc & 0x80 ? (crc << 1) ^ CW_CRC: crc << 1;
 2300              		.loc 1 26 15 view .LVU772
  27:.././simpleserial/simpleserial.c **** 		}
 2301              		.loc 1 27 4 view .LVU773
  27:.././simpleserial/simpleserial.c **** 		}
 2302              		.loc 1 27 8 is_stmt 0 view .LVU774
 2303 012c 0028     		cmp	r0, #0
 2304 012e 30DB     		blt	.L184
 2305              	.L222:
  27:.././simpleserial/simpleserial.c **** 		}
 2306              		.loc 1 27 8 view .LVU775
 2307 0130 5800     		lsls	r0, r3, #1
 2308 0132 C3B2     		uxtb	r3, r0
 2309              	.LVL254:
  27:.././simpleserial/simpleserial.c **** 		}
 2310              		.loc 1 27 21 view .LVU776
 2311 0134 40B2     		sxtb	r0, r0
 2312              	.LVL255:
  26:.././simpleserial/simpleserial.c **** 			crc = crc & 0x80 ? (crc << 1) ^ CW_CRC: crc << 1;
 2313              		.loc 1 26 22 is_stmt 1 view .LVU777
  26:.././simpleserial/simpleserial.c **** 			crc = crc & 0x80 ? (crc << 1) ^ CW_CRC: crc << 1;
 2314              		.loc 1 26 15 view .LVU778
  27:.././simpleserial/simpleserial.c **** 		}
 2315              		.loc 1 27 4 view .LVU779
  27:.././simpleserial/simpleserial.c **** 		}
 2316              		.loc 1 27 8 is_stmt 0 view .LVU780
 2317 0136 0028     		cmp	r0, #0
 2318 0138 31DB     		blt	.L186
 2319              	.L223:
  27:.././simpleserial/simpleserial.c **** 		}
 2320              		.loc 1 27 8 view .LVU781
 2321 013a 5800     		lsls	r0, r3, #1
 2322 013c C3B2     		uxtb	r3, r0
 2323              	.LVL256:
  27:.././simpleserial/simpleserial.c **** 		}
 2324              		.loc 1 27 21 view .LVU782
 2325 013e 40B2     		sxtb	r0, r0
 2326              	.LVL257:
  26:.././simpleserial/simpleserial.c **** 			crc = crc & 0x80 ? (crc << 1) ^ CW_CRC: crc << 1;
 2327              		.loc 1 26 22 is_stmt 1 view .LVU783
  26:.././simpleserial/simpleserial.c **** 			crc = crc & 0x80 ? (crc << 1) ^ CW_CRC: crc << 1;
 2328              		.loc 1 26 15 view .LVU784
  27:.././simpleserial/simpleserial.c **** 		}
 2329              		.loc 1 27 4 view .LVU785
  27:.././simpleserial/simpleserial.c **** 		}
 2330              		.loc 1 27 8 is_stmt 0 view .LVU786
 2331 0140 0028     		cmp	r0, #0
 2332 0142 32DB     		blt	.L188
 2333              	.L224:
  27:.././simpleserial/simpleserial.c **** 		}
 2334              		.loc 1 27 8 view .LVU787
 2335 0144 5800     		lsls	r0, r3, #1
 2336 0146 C3B2     		uxtb	r3, r0
 2337              	.LVL258:
  27:.././simpleserial/simpleserial.c **** 		}
 2338              		.loc 1 27 21 view .LVU788
 2339 0148 40B2     		sxtb	r0, r0
 2340              	.LVL259:
  26:.././simpleserial/simpleserial.c **** 			crc = crc & 0x80 ? (crc << 1) ^ CW_CRC: crc << 1;
 2341              		.loc 1 26 22 is_stmt 1 view .LVU789
  26:.././simpleserial/simpleserial.c **** 			crc = crc & 0x80 ? (crc << 1) ^ CW_CRC: crc << 1;
 2342              		.loc 1 26 15 view .LVU790
  27:.././simpleserial/simpleserial.c **** 		}
 2343              		.loc 1 27 4 view .LVU791
  27:.././simpleserial/simpleserial.c **** 		}
 2344              		.loc 1 27 8 is_stmt 0 view .LVU792
 2345 014a 0028     		cmp	r0, #0
 2346 014c 33DB     		blt	.L190
 2347              	.L225:
  27:.././simpleserial/simpleserial.c **** 		}
 2348              		.loc 1 27 8 view .LVU793
 2349 014e 5800     		lsls	r0, r3, #1
 2350 0150 C3B2     		uxtb	r3, r0
 2351              	.LVL260:
  27:.././simpleserial/simpleserial.c **** 		}
 2352              		.loc 1 27 21 view .LVU794
 2353 0152 40B2     		sxtb	r0, r0
 2354              	.LVL261:
  26:.././simpleserial/simpleserial.c **** 			crc = crc & 0x80 ? (crc << 1) ^ CW_CRC: crc << 1;
 2355              		.loc 1 26 22 is_stmt 1 view .LVU795
  26:.././simpleserial/simpleserial.c **** 			crc = crc & 0x80 ? (crc << 1) ^ CW_CRC: crc << 1;
 2356              		.loc 1 26 15 view .LVU796
  27:.././simpleserial/simpleserial.c **** 		}
 2357              		.loc 1 27 4 view .LVU797
  27:.././simpleserial/simpleserial.c **** 		}
 2358              		.loc 1 27 8 is_stmt 0 view .LVU798
 2359 0154 0028     		cmp	r0, #0
 2360 0156 34DB     		blt	.L192
 2361              	.L226:
  27:.././simpleserial/simpleserial.c **** 		}
 2362              		.loc 1 27 8 view .LVU799
 2363 0158 5800     		lsls	r0, r3, #1
 2364 015a C3B2     		uxtb	r3, r0
 2365              	.LVL262:
  27:.././simpleserial/simpleserial.c **** 		}
 2366              		.loc 1 27 21 view .LVU800
 2367 015c 40B2     		sxtb	r0, r0
 2368              	.LVL263:
  26:.././simpleserial/simpleserial.c **** 			crc = crc & 0x80 ? (crc << 1) ^ CW_CRC: crc << 1;
 2369              		.loc 1 26 22 is_stmt 1 view .LVU801
  26:.././simpleserial/simpleserial.c **** 			crc = crc & 0x80 ? (crc << 1) ^ CW_CRC: crc << 1;
 2370              		.loc 1 26 15 view .LVU802
  27:.././simpleserial/simpleserial.c **** 		}
 2371              		.loc 1 27 4 view .LVU803
  27:.././simpleserial/simpleserial.c **** 		}
 2372              		.loc 1 27 8 is_stmt 0 view .LVU804
 2373 015e 0028     		cmp	r0, #0
 2374 0160 35DB     		blt	.L194
 2375              	.L227:
  27:.././simpleserial/simpleserial.c **** 		}
 2376              		.loc 1 27 8 view .LVU805
 2377 0162 5B00     		lsls	r3, r3, #1
 2378              	.LVL264:
  27:.././simpleserial/simpleserial.c **** 		}
 2379              		.loc 1 27 8 view .LVU806
 2380 0164 D8B2     		uxtb	r0, r3
  27:.././simpleserial/simpleserial.c **** 		}
 2381              		.loc 1 27 21 view .LVU807
 2382 0166 5BB2     		sxtb	r3, r3
 2383              	.L195:
 2384              	.LVL265:
  26:.././simpleserial/simpleserial.c **** 			crc = crc & 0x80 ? (crc << 1) ^ CW_CRC: crc << 1;
 2385              		.loc 1 26 22 is_stmt 1 view .LVU808
  26:.././simpleserial/simpleserial.c **** 			crc = crc & 0x80 ? (crc << 1) ^ CW_CRC: crc << 1;
 2386              		.loc 1 26 15 view .LVU809
  27:.././simpleserial/simpleserial.c **** 		}
 2387              		.loc 1 27 4 view .LVU810
  27:.././simpleserial/simpleserial.c **** 		}
 2388              		.loc 1 27 28 is_stmt 0 view .LVU811
 2389 0168 4000     		lsls	r0, r0, #1
 2390              	.LVL266:
  27:.././simpleserial/simpleserial.c **** 		}
 2391              		.loc 1 27 8 view .LVU812
 2392 016a 002B     		cmp	r3, #0
 2393 016c 00DA     		bge	.L215
  27:.././simpleserial/simpleserial.c **** 		}
 2394              		.loc 1 27 34 view .LVU813
 2395 016e 4840     		eors	r0, r1
 2396              	.L215:
  24:.././simpleserial/simpleserial.c **** 		crc ^= *buf++;
 2397              		.loc 1 24 12 view .LVU814
 2398 0170 013A     		subs	r2, r2, #1
 2399              	.LVL267:
  24:.././simpleserial/simpleserial.c **** 		crc ^= *buf++;
 2400              		.loc 1 24 12 view .LVU815
 2401 0172 D2B2     		uxtb	r2, r2
  27:.././simpleserial/simpleserial.c **** 		}
 2402              		.loc 1 27 8 view .LVU816
 2403 0174 C0B2     		uxtb	r0, r0
 2404              	.LVL268:
  24:.././simpleserial/simpleserial.c **** 		crc ^= *buf++;
 2405              		.loc 1 24 8 is_stmt 1 view .LVU817
  24:.././simpleserial/simpleserial.c **** 		crc ^= *buf++;
 2406              		.loc 1 24 8 is_stmt 0 view .LVU818
 2407 0176 0134     		adds	r4, r4, #1
 2408              	.LVL269:
  24:.././simpleserial/simpleserial.c **** 		crc ^= *buf++;
 2409              		.loc 1 24 8 view .LVU819
 2410 0178 FF2A     		cmp	r2, #255
 2411 017a 2DD0     		beq	.L220
 2412              	.LVL270:
 2413              	.L179:
  25:.././simpleserial/simpleserial.c **** 		for (k = 0; k < 8; k++) {
 2414              		.loc 1 25 3 is_stmt 1 view .LVU820
  25:.././simpleserial/simpleserial.c **** 		for (k = 0; k < 8; k++) {
 2415              		.loc 1 25 7 is_stmt 0 view .LVU821
 2416 017c 2378     		ldrb	r3, [r4]
 2417 017e 5840     		eors	r0, r3
 2418              	.LVL271:
  25:.././simpleserial/simpleserial.c **** 		for (k = 0; k < 8; k++) {
 2419              		.loc 1 25 7 view .LVU822
 2420 0180 C3B2     		uxtb	r3, r0
 2421              	.LVL272:
  26:.././simpleserial/simpleserial.c **** 			crc = crc & 0x80 ? (crc << 1) ^ CW_CRC: crc << 1;
 2422              		.loc 1 26 3 is_stmt 1 view .LVU823
  26:.././simpleserial/simpleserial.c **** 			crc = crc & 0x80 ? (crc << 1) ^ CW_CRC: crc << 1;
 2423              		.loc 1 26 15 view .LVU824
  27:.././simpleserial/simpleserial.c **** 		}
 2424              		.loc 1 27 4 view .LVU825
  27:.././simpleserial/simpleserial.c **** 		}
 2425              		.loc 1 27 8 is_stmt 0 view .LVU826
 2426 0182 0006     		lsls	r0, r0, #24
 2427 0184 CFD5     		bpl	.L221
  27:.././simpleserial/simpleserial.c **** 		}
 2428              		.loc 1 27 28 view .LVU827
 2429 0186 5B00     		lsls	r3, r3, #1
 2430              	.LVL273:
  27:.././simpleserial/simpleserial.c **** 		}
 2431              		.loc 1 27 34 view .LVU828
 2432 0188 4B40     		eors	r3, r1
 2433 018a 58B2     		sxtb	r0, r3
  27:.././simpleserial/simpleserial.c **** 		}
 2434              		.loc 1 27 8 view .LVU829
 2435 018c DBB2     		uxtb	r3, r3
 2436              	.LVL274:
  26:.././simpleserial/simpleserial.c **** 			crc = crc & 0x80 ? (crc << 1) ^ CW_CRC: crc << 1;
 2437              		.loc 1 26 22 is_stmt 1 view .LVU830
  26:.././simpleserial/simpleserial.c **** 			crc = crc & 0x80 ? (crc << 1) ^ CW_CRC: crc << 1;
 2438              		.loc 1 26 15 view .LVU831
  27:.././simpleserial/simpleserial.c **** 		}
 2439              		.loc 1 27 4 view .LVU832
  27:.././simpleserial/simpleserial.c **** 		}
 2440              		.loc 1 27 8 is_stmt 0 view .LVU833
 2441 018e 0028     		cmp	r0, #0
 2442 0190 CEDA     		bge	.L222
 2443              	.L184:
  27:.././simpleserial/simpleserial.c **** 		}
 2444              		.loc 1 27 28 view .LVU834
 2445 0192 5B00     		lsls	r3, r3, #1
 2446              	.LVL275:
  27:.././simpleserial/simpleserial.c **** 		}
 2447              		.loc 1 27 34 view .LVU835
 2448 0194 4B40     		eors	r3, r1
 2449 0196 58B2     		sxtb	r0, r3
  27:.././simpleserial/simpleserial.c **** 		}
 2450              		.loc 1 27 8 view .LVU836
 2451 0198 DBB2     		uxtb	r3, r3
 2452              	.LVL276:
  26:.././simpleserial/simpleserial.c **** 			crc = crc & 0x80 ? (crc << 1) ^ CW_CRC: crc << 1;
 2453              		.loc 1 26 22 is_stmt 1 view .LVU837
  26:.././simpleserial/simpleserial.c **** 			crc = crc & 0x80 ? (crc << 1) ^ CW_CRC: crc << 1;
 2454              		.loc 1 26 15 view .LVU838
  27:.././simpleserial/simpleserial.c **** 		}
 2455              		.loc 1 27 4 view .LVU839
  27:.././simpleserial/simpleserial.c **** 		}
 2456              		.loc 1 27 8 is_stmt 0 view .LVU840
 2457 019a 0028     		cmp	r0, #0
 2458 019c CDDA     		bge	.L223
 2459              	.L186:
  27:.././simpleserial/simpleserial.c **** 		}
 2460              		.loc 1 27 28 view .LVU841
 2461 019e 5B00     		lsls	r3, r3, #1
 2462              	.LVL277:
  27:.././simpleserial/simpleserial.c **** 		}
 2463              		.loc 1 27 34 view .LVU842
 2464 01a0 4B40     		eors	r3, r1
 2465 01a2 58B2     		sxtb	r0, r3
  27:.././simpleserial/simpleserial.c **** 		}
 2466              		.loc 1 27 8 view .LVU843
 2467 01a4 DBB2     		uxtb	r3, r3
 2468              	.LVL278:
  26:.././simpleserial/simpleserial.c **** 			crc = crc & 0x80 ? (crc << 1) ^ CW_CRC: crc << 1;
 2469              		.loc 1 26 22 is_stmt 1 view .LVU844
  26:.././simpleserial/simpleserial.c **** 			crc = crc & 0x80 ? (crc << 1) ^ CW_CRC: crc << 1;
 2470              		.loc 1 26 15 view .LVU845
  27:.././simpleserial/simpleserial.c **** 		}
 2471              		.loc 1 27 4 view .LVU846
  27:.././simpleserial/simpleserial.c **** 		}
 2472              		.loc 1 27 8 is_stmt 0 view .LVU847
 2473 01a6 0028     		cmp	r0, #0
 2474 01a8 CCDA     		bge	.L224
 2475              	.L188:
  27:.././simpleserial/simpleserial.c **** 		}
 2476              		.loc 1 27 28 view .LVU848
 2477 01aa 5B00     		lsls	r3, r3, #1
 2478              	.LVL279:
  27:.././simpleserial/simpleserial.c **** 		}
 2479              		.loc 1 27 34 view .LVU849
 2480 01ac 4B40     		eors	r3, r1
 2481 01ae 58B2     		sxtb	r0, r3
  27:.././simpleserial/simpleserial.c **** 		}
 2482              		.loc 1 27 8 view .LVU850
 2483 01b0 DBB2     		uxtb	r3, r3
 2484              	.LVL280:
  26:.././simpleserial/simpleserial.c **** 			crc = crc & 0x80 ? (crc << 1) ^ CW_CRC: crc << 1;
 2485              		.loc 1 26 22 is_stmt 1 view .LVU851
  26:.././simpleserial/simpleserial.c **** 			crc = crc & 0x80 ? (crc << 1) ^ CW_CRC: crc << 1;
 2486              		.loc 1 26 15 view .LVU852
  27:.././simpleserial/simpleserial.c **** 		}
 2487              		.loc 1 27 4 view .LVU853
  27:.././simpleserial/simpleserial.c **** 		}
 2488              		.loc 1 27 8 is_stmt 0 view .LVU854
 2489 01b2 0028     		cmp	r0, #0
 2490 01b4 CBDA     		bge	.L225
 2491              	.L190:
  27:.././simpleserial/simpleserial.c **** 		}
 2492              		.loc 1 27 28 view .LVU855
 2493 01b6 5B00     		lsls	r3, r3, #1
 2494              	.LVL281:
  27:.././simpleserial/simpleserial.c **** 		}
 2495              		.loc 1 27 34 view .LVU856
 2496 01b8 4B40     		eors	r3, r1
 2497 01ba 58B2     		sxtb	r0, r3
  27:.././simpleserial/simpleserial.c **** 		}
 2498              		.loc 1 27 8 view .LVU857
 2499 01bc DBB2     		uxtb	r3, r3
 2500              	.LVL282:
  26:.././simpleserial/simpleserial.c **** 			crc = crc & 0x80 ? (crc << 1) ^ CW_CRC: crc << 1;
 2501              		.loc 1 26 22 is_stmt 1 view .LVU858
  26:.././simpleserial/simpleserial.c **** 			crc = crc & 0x80 ? (crc << 1) ^ CW_CRC: crc << 1;
 2502              		.loc 1 26 15 view .LVU859
  27:.././simpleserial/simpleserial.c **** 		}
 2503              		.loc 1 27 4 view .LVU860
  27:.././simpleserial/simpleserial.c **** 		}
 2504              		.loc 1 27 8 is_stmt 0 view .LVU861
 2505 01be 0028     		cmp	r0, #0
 2506 01c0 CADA     		bge	.L226
 2507              	.L192:
  27:.././simpleserial/simpleserial.c **** 		}
 2508              		.loc 1 27 28 view .LVU862
 2509 01c2 5B00     		lsls	r3, r3, #1
 2510              	.LVL283:
  27:.././simpleserial/simpleserial.c **** 		}
 2511              		.loc 1 27 34 view .LVU863
 2512 01c4 4B40     		eors	r3, r1
 2513 01c6 58B2     		sxtb	r0, r3
  27:.././simpleserial/simpleserial.c **** 		}
 2514              		.loc 1 27 8 view .LVU864
 2515 01c8 DBB2     		uxtb	r3, r3
 2516              	.LVL284:
  26:.././simpleserial/simpleserial.c **** 			crc = crc & 0x80 ? (crc << 1) ^ CW_CRC: crc << 1;
 2517              		.loc 1 26 22 is_stmt 1 view .LVU865
  26:.././simpleserial/simpleserial.c **** 			crc = crc & 0x80 ? (crc << 1) ^ CW_CRC: crc << 1;
 2518              		.loc 1 26 15 view .LVU866
  27:.././simpleserial/simpleserial.c **** 		}
 2519              		.loc 1 27 4 view .LVU867
  27:.././simpleserial/simpleserial.c **** 		}
 2520              		.loc 1 27 8 is_stmt 0 view .LVU868
 2521 01ca 0028     		cmp	r0, #0
 2522 01cc C9DA     		bge	.L227
 2523              	.L194:
  27:.././simpleserial/simpleserial.c **** 		}
 2524              		.loc 1 27 28 view .LVU869
 2525 01ce 5800     		lsls	r0, r3, #1
  27:.././simpleserial/simpleserial.c **** 		}
 2526              		.loc 1 27 34 view .LVU870
 2527 01d0 4840     		eors	r0, r1
 2528 01d2 43B2     		sxtb	r3, r0
 2529              	.LVL285:
  27:.././simpleserial/simpleserial.c **** 		}
 2530              		.loc 1 27 8 view .LVU871
 2531 01d4 C0B2     		uxtb	r0, r0
 2532 01d6 C7E7     		b	.L195
 2533              	.LVL286:
 2534              	.L220:
  30:.././simpleserial/simpleserial.c **** 
 2535              		.loc 1 30 2 is_stmt 1 view .LVU872
  30:.././simpleserial/simpleserial.c **** 
 2536              		.loc 1 30 2 is_stmt 0 view .LVU873
 2537              	.LBE63:
 2538              	.LBE62:
 218:.././simpleserial/simpleserial.c **** 		err = SS_ERR_CRC;
 2539              		.loc 1 218 2 is_stmt 1 view .LVU874
 218:.././simpleserial/simpleserial.c **** 		err = SS_ERR_CRC;
 2540              		.loc 1 218 5 is_stmt 0 view .LVU875
 2541 01d8 4B46     		mov	r3, r9
 2542 01da EB5C     		ldrb	r3, [r5, r3]
 2543 01dc 8342     		cmp	r3, r0
 2544 01de 03D0     		beq	.L198
 219:.././simpleserial/simpleserial.c **** 		goto ERROR;
 2545              		.loc 1 219 3 is_stmt 1 view .LVU876
 219:.././simpleserial/simpleserial.c **** 		goto ERROR;
 2546              		.loc 1 219 7 is_stmt 0 view .LVU877
 2547 01e0 0223     		movs	r3, #2
 2548 01e2 6A46     		mov	r2, sp
 2549 01e4 D371     		strb	r3, [r2, #7]
 220:.././simpleserial/simpleserial.c **** 	}
 2550              		.loc 1 220 3 is_stmt 1 view .LVU878
 2551 01e6 52E7     		b	.L165
 2552              	.L198:
 223:.././simpleserial/simpleserial.c **** 
 2553              		.loc 1 223 2 view .LVU879
 223:.././simpleserial/simpleserial.c **** 
 2554              		.loc 1 223 19 is_stmt 0 view .LVU880
 2555 01e8 7B00     		lsls	r3, r7, #1
 2556 01ea DF19     		adds	r7, r3, r7
 2557 01ec 064B     		ldr	r3, .L228+4
 2558 01ee BF00     		lsls	r7, r7, #2
 2559 01f0 DF19     		adds	r7, r3, r7
 223:.././simpleserial/simpleserial.c **** 
 2560              		.loc 1 223 8 view .LVU881
 2561 01f2 EA78     		ldrb	r2, [r5, #3]
 2562 01f4 5B46     		mov	r3, fp
 2563 01f6 A978     		ldrb	r1, [r5, #2]
 2564 01f8 6878     		ldrb	r0, [r5, #1]
 2565              	.LVL287:
 223:.././simpleserial/simpleserial.c **** 
 2566              		.loc 1 223 8 view .LVU882
 2567 01fa BC68     		ldr	r4, [r7, #8]
 2568 01fc A047     		blx	r4
 2569              	.LVL288:
 223:.././simpleserial/simpleserial.c **** 
 2570              		.loc 1 223 6 view .LVU883
 2571 01fe 6B46     		mov	r3, sp
 2572 0200 D871     		strb	r0, [r3, #7]
 2573 0202 44E7     		b	.L165
 2574              	.L229:
 2575              		.align	2
 2576              	.L228:
 2577 0204 00000000 		.word	.LANCHOR0
 2578 0208 04000000 		.word	commands
 2579              		.cfi_endproc
 2580              	.LFE9:
 2582              		.section	.text.simpleserial_put,"ax",%progbits
 2583              		.align	1
 2584              		.p2align 2,,3
 2585              		.global	simpleserial_put
 2586              		.syntax unified
 2587              		.code	16
 2588              		.thumb_func
 2589              		.fpu softvfp
 2591              	simpleserial_put:
 2592              	.LVL289:
 2593              	.LFB10:
 231:.././simpleserial/simpleserial.c **** 	uint8_t data_buf[MAX_SS_LEN];
 2594              		.loc 1 231 1 is_stmt 1 view -0
 2595              		.cfi_startproc
 2596              		@ args = 0, pretend = 0, frame = 256
 2597              		@ frame_needed = 0, uses_anonymous_args = 0
 232:.././simpleserial/simpleserial.c **** 	data_buf[0] = 0x00;
 2598              		.loc 1 232 2 view .LVU885
 233:.././simpleserial/simpleserial.c **** 	data_buf[1] = c;
 2599              		.loc 1 233 2 view .LVU886
 231:.././simpleserial/simpleserial.c **** 	uint8_t data_buf[MAX_SS_LEN];
 2600              		.loc 1 231 1 is_stmt 0 view .LVU887
 2601 0000 F0B5     		push	{r4, r5, r6, r7, lr}
 2602              	.LCFI14:
 2603              		.cfi_def_cfa_offset 20
 2604              		.cfi_offset 4, -20
 2605              		.cfi_offset 5, -16
 2606              		.cfi_offset 6, -12
 2607              		.cfi_offset 7, -8
 2608              		.cfi_offset 14, -4
 2609 0002 CE46     		mov	lr, r9
 2610 0004 4746     		mov	r7, r8
 2611 0006 80B5     		push	{r7, lr}
 2612              	.LCFI15:
 2613              		.cfi_def_cfa_offset 28
 2614              		.cfi_offset 8, -28
 2615              		.cfi_offset 9, -24
 2616 0008 C1B0     		sub	sp, sp, #260
 2617              	.LCFI16:
 2618              		.cfi_def_cfa_offset 288
 233:.././simpleserial/simpleserial.c **** 	data_buf[1] = c;
 2619              		.loc 1 233 14 view .LVU888
 2620 000a 6B46     		mov	r3, sp
 231:.././simpleserial/simpleserial.c **** 	uint8_t data_buf[MAX_SS_LEN];
 2621              		.loc 1 231 1 view .LVU889
 2622 000c 0D00     		movs	r5, r1
 233:.././simpleserial/simpleserial.c **** 	data_buf[1] = c;
 2623              		.loc 1 233 14 view .LVU890
 2624 000e 0026     		movs	r6, #0
 231:.././simpleserial/simpleserial.c **** 	uint8_t data_buf[MAX_SS_LEN];
 2625              		.loc 1 231 1 view .LVU891
 2626 0010 1100     		movs	r1, r2
 2627              	.LVL290:
 233:.././simpleserial/simpleserial.c **** 	data_buf[1] = c;
 2628              		.loc 1 233 14 view .LVU892
 2629 0012 1E70     		strb	r6, [r3]
 234:.././simpleserial/simpleserial.c **** 	data_buf[2] = size;
 2630              		.loc 1 234 2 is_stmt 1 view .LVU893
 234:.././simpleserial/simpleserial.c **** 	data_buf[2] = size;
 2631              		.loc 1 234 14 is_stmt 0 view .LVU894
 2632 0014 5870     		strb	r0, [r3, #1]
 235:.././simpleserial/simpleserial.c **** 	int i = 0;
 2633              		.loc 1 235 2 is_stmt 1 view .LVU895
 235:.././simpleserial/simpleserial.c **** 	int i = 0;
 2634              		.loc 1 235 14 is_stmt 0 view .LVU896
 2635 0016 9D70     		strb	r5, [r3, #2]
 236:.././simpleserial/simpleserial.c **** 	for (; i < size; i++) {
 2636              		.loc 1 236 2 is_stmt 1 view .LVU897
 2637              	.LVL291:
 237:.././simpleserial/simpleserial.c **** 		data_buf[i + 3] = output[i];
 2638              		.loc 1 237 2 view .LVU898
 237:.././simpleserial/simpleserial.c **** 		data_buf[i + 3] = output[i];
 2639              		.loc 1 237 9 view .LVU899
 237:.././simpleserial/simpleserial.c **** 		data_buf[i + 3] = output[i];
 2640              		.loc 1 237 2 is_stmt 0 view .LVU900
 2641 0018 002D     		cmp	r5, #0
 2642 001a 00D1     		bne	.LCB2530
 2643 001c 95E0     		b	.L231	@long jump
 2644              	.LCB2530:
 238:.././simpleserial/simpleserial.c **** 	}
 2645              		.loc 1 238 19 view .LVU901
 2646 001e D81C     		adds	r0, r3, #3
 2647              	.LVL292:
 238:.././simpleserial/simpleserial.c **** 	}
 2648              		.loc 1 238 19 view .LVU902
 2649 0020 2A00     		movs	r2, r5
 2650              	.LVL293:
 238:.././simpleserial/simpleserial.c **** 	}
 2651              		.loc 1 238 19 view .LVU903
 2652 0022 FFF7FEFF 		bl	memcpy
 2653              	.LVL294:
 241:.././simpleserial/simpleserial.c **** 	stuff_data(data_buf, i + 5);
 2654              		.loc 1 241 13 view .LVU904
 2655 0026 2C1D     		adds	r4, r5, #4
 240:.././simpleserial/simpleserial.c **** 	data_buf[i + 4] = 0x00;
 2656              		.loc 1 240 13 view .LVU905
 2657 0028 EB1C     		adds	r3, r5, #3
 242:.././simpleserial/simpleserial.c **** 	for (int i = 0; i < size + 5; i++) {
 2658              		.loc 1 242 2 view .LVU906
 2659 002a 6F1D     		adds	r7, r5, #5
 2660              	.LBB64:
 2661              	.LBB65:
  24:.././simpleserial/simpleserial.c **** 		crc ^= *buf++;
 2662              		.loc 1 24 12 view .LVU907
 2663 002c 681C     		adds	r0, r5, #1
 2664              	.LBE65:
 2665              	.LBE64:
 240:.././simpleserial/simpleserial.c **** 	data_buf[i + 4] = 0x00;
 2666              		.loc 1 240 13 view .LVU908
 2667 002e 9C46     		mov	ip, r3
 241:.././simpleserial/simpleserial.c **** 	stuff_data(data_buf, i + 5);
 2668              		.loc 1 241 13 view .LVU909
 2669 0030 A046     		mov	r8, r4
 242:.././simpleserial/simpleserial.c **** 	for (int i = 0; i < size + 5; i++) {
 2670              		.loc 1 242 2 view .LVU910
 2671 0032 FFB2     		uxtb	r7, r7
 240:.././simpleserial/simpleserial.c **** 	data_buf[i + 4] = 0x00;
 2672              		.loc 1 240 2 is_stmt 1 view .LVU911
 2673              	.LVL295:
 2674              	.LBB68:
 2675              	.LBI64:
  20:.././simpleserial/simpleserial.c **** {
 2676              		.loc 1 20 9 view .LVU912
 2677              	.LBB66:
  22:.././simpleserial/simpleserial.c **** 	uint8_t crc = 0x00;
 2678              		.loc 1 22 2 view .LVU913
  23:.././simpleserial/simpleserial.c **** 	while (len--) {
 2679              		.loc 1 23 2 view .LVU914
  24:.././simpleserial/simpleserial.c **** 		crc ^= *buf++;
 2680              		.loc 1 24 2 view .LVU915
  24:.././simpleserial/simpleserial.c **** 		crc ^= *buf++;
 2681              		.loc 1 24 8 view .LVU916
  24:.././simpleserial/simpleserial.c **** 		crc ^= *buf++;
 2682              		.loc 1 24 12 is_stmt 0 view .LVU917
 2683 0034 C0B2     		uxtb	r0, r0
 2684              	.LVL296:
  24:.././simpleserial/simpleserial.c **** 		crc ^= *buf++;
 2685              		.loc 1 24 8 view .LVU918
 2686 0036 FE2D     		cmp	r5, #254
 2687 0038 00D1     		bne	.LCB2569
 2688 003a 8EE0     		b	.L232	@long jump
 2689              	.LCB2569:
 2690              	.LVL297:
 2691              	.L256:
  24:.././simpleserial/simpleserial.c **** 		crc ^= *buf++;
 2692              		.loc 1 24 8 view .LVU919
 2693 003c 0123     		movs	r3, #1
 2694 003e 6B44     		add	r3, r3, sp
 2695 0040 9946     		mov	r9, r3
 2696 0042 1E00     		movs	r6, r3
  27:.././simpleserial/simpleserial.c **** 		}
 2697              		.loc 1 27 34 view .LVU920
 2698 0044 4D25     		movs	r5, #77
  23:.././simpleserial/simpleserial.c **** 	while (len--) {
 2699              		.loc 1 23 10 view .LVU921
 2700 0046 0023     		movs	r3, #0
 2701 0048 29E0     		b	.L249
 2702              	.LVL298:
 2703              	.L265:
  27:.././simpleserial/simpleserial.c **** 		}
 2704              		.loc 1 27 21 view .LVU922
 2705 004a 5AB2     		sxtb	r2, r3
 2706              	.LVL299:
  27:.././simpleserial/simpleserial.c **** 		}
 2707              		.loc 1 27 8 view .LVU923
 2708 004c D9B2     		uxtb	r1, r3
 2709              	.LVL300:
  26:.././simpleserial/simpleserial.c **** 			crc = crc & 0x80 ? (crc << 1) ^ CW_CRC: crc << 1;
 2710              		.loc 1 26 22 is_stmt 1 view .LVU924
  26:.././simpleserial/simpleserial.c **** 			crc = crc & 0x80 ? (crc << 1) ^ CW_CRC: crc << 1;
 2711              		.loc 1 26 15 view .LVU925
  27:.././simpleserial/simpleserial.c **** 		}
 2712              		.loc 1 27 4 view .LVU926
  27:.././simpleserial/simpleserial.c **** 		}
 2713              		.loc 1 27 8 is_stmt 0 view .LVU927
 2714 004e 002A     		cmp	r2, #0
 2715 0050 30DB     		blt	.L235
 2716              	.L266:
  27:.././simpleserial/simpleserial.c **** 		}
 2717              		.loc 1 27 8 view .LVU928
 2718 0052 4A00     		lsls	r2, r1, #1
 2719 0054 D3B2     		uxtb	r3, r2
  27:.././simpleserial/simpleserial.c **** 		}
 2720              		.loc 1 27 21 view .LVU929
 2721 0056 52B2     		sxtb	r2, r2
 2722              	.LVL301:
  26:.././simpleserial/simpleserial.c **** 			crc = crc & 0x80 ? (crc << 1) ^ CW_CRC: crc << 1;
 2723              		.loc 1 26 22 is_stmt 1 view .LVU930
  26:.././simpleserial/simpleserial.c **** 			crc = crc & 0x80 ? (crc << 1) ^ CW_CRC: crc << 1;
 2724              		.loc 1 26 15 view .LVU931
  27:.././simpleserial/simpleserial.c **** 		}
 2725              		.loc 1 27 4 view .LVU932
  27:.././simpleserial/simpleserial.c **** 		}
 2726              		.loc 1 27 8 is_stmt 0 view .LVU933
 2727 0058 002A     		cmp	r2, #0
 2728 005a 31DB     		blt	.L237
 2729              	.L267:
  27:.././simpleserial/simpleserial.c **** 		}
 2730              		.loc 1 27 8 view .LVU934
 2731 005c 5A00     		lsls	r2, r3, #1
 2732 005e D3B2     		uxtb	r3, r2
 2733              	.LVL302:
  27:.././simpleserial/simpleserial.c **** 		}
 2734              		.loc 1 27 21 view .LVU935
 2735 0060 52B2     		sxtb	r2, r2
 2736              	.LVL303:
  26:.././simpleserial/simpleserial.c **** 			crc = crc & 0x80 ? (crc << 1) ^ CW_CRC: crc << 1;
 2737              		.loc 1 26 22 is_stmt 1 view .LVU936
  26:.././simpleserial/simpleserial.c **** 			crc = crc & 0x80 ? (crc << 1) ^ CW_CRC: crc << 1;
 2738              		.loc 1 26 15 view .LVU937
  27:.././simpleserial/simpleserial.c **** 		}
 2739              		.loc 1 27 4 view .LVU938
  27:.././simpleserial/simpleserial.c **** 		}
 2740              		.loc 1 27 8 is_stmt 0 view .LVU939
 2741 0062 002A     		cmp	r2, #0
 2742 0064 32DB     		blt	.L239
 2743              	.L268:
  27:.././simpleserial/simpleserial.c **** 		}
 2744              		.loc 1 27 8 view .LVU940
 2745 0066 5A00     		lsls	r2, r3, #1
 2746 0068 D3B2     		uxtb	r3, r2
 2747              	.LVL304:
  27:.././simpleserial/simpleserial.c **** 		}
 2748              		.loc 1 27 21 view .LVU941
 2749 006a 52B2     		sxtb	r2, r2
 2750              	.LVL305:
  26:.././simpleserial/simpleserial.c **** 			crc = crc & 0x80 ? (crc << 1) ^ CW_CRC: crc << 1;
 2751              		.loc 1 26 22 is_stmt 1 view .LVU942
  26:.././simpleserial/simpleserial.c **** 			crc = crc & 0x80 ? (crc << 1) ^ CW_CRC: crc << 1;
 2752              		.loc 1 26 15 view .LVU943
  27:.././simpleserial/simpleserial.c **** 		}
 2753              		.loc 1 27 4 view .LVU944
  27:.././simpleserial/simpleserial.c **** 		}
 2754              		.loc 1 27 8 is_stmt 0 view .LVU945
 2755 006c 002A     		cmp	r2, #0
 2756 006e 33DB     		blt	.L241
 2757              	.L269:
  27:.././simpleserial/simpleserial.c **** 		}
 2758              		.loc 1 27 8 view .LVU946
 2759 0070 5A00     		lsls	r2, r3, #1
 2760 0072 D3B2     		uxtb	r3, r2
 2761              	.LVL306:
  27:.././simpleserial/simpleserial.c **** 		}
 2762              		.loc 1 27 21 view .LVU947
 2763 0074 52B2     		sxtb	r2, r2
 2764              	.LVL307:
  26:.././simpleserial/simpleserial.c **** 			crc = crc & 0x80 ? (crc << 1) ^ CW_CRC: crc << 1;
 2765              		.loc 1 26 22 is_stmt 1 view .LVU948
  26:.././simpleserial/simpleserial.c **** 			crc = crc & 0x80 ? (crc << 1) ^ CW_CRC: crc << 1;
 2766              		.loc 1 26 15 view .LVU949
  27:.././simpleserial/simpleserial.c **** 		}
 2767              		.loc 1 27 4 view .LVU950
  27:.././simpleserial/simpleserial.c **** 		}
 2768              		.loc 1 27 8 is_stmt 0 view .LVU951
 2769 0076 002A     		cmp	r2, #0
 2770 0078 34DB     		blt	.L243
 2771              	.L270:
  27:.././simpleserial/simpleserial.c **** 		}
 2772              		.loc 1 27 8 view .LVU952
 2773 007a 5A00     		lsls	r2, r3, #1
 2774 007c D3B2     		uxtb	r3, r2
 2775              	.LVL308:
  27:.././simpleserial/simpleserial.c **** 		}
 2776              		.loc 1 27 21 view .LVU953
 2777 007e 52B2     		sxtb	r2, r2
 2778              	.LVL309:
  26:.././simpleserial/simpleserial.c **** 			crc = crc & 0x80 ? (crc << 1) ^ CW_CRC: crc << 1;
 2779              		.loc 1 26 22 is_stmt 1 view .LVU954
  26:.././simpleserial/simpleserial.c **** 			crc = crc & 0x80 ? (crc << 1) ^ CW_CRC: crc << 1;
 2780              		.loc 1 26 15 view .LVU955
  27:.././simpleserial/simpleserial.c **** 		}
 2781              		.loc 1 27 4 view .LVU956
  27:.././simpleserial/simpleserial.c **** 		}
 2782              		.loc 1 27 8 is_stmt 0 view .LVU957
 2783 0080 002A     		cmp	r2, #0
 2784 0082 35DB     		blt	.L245
 2785              	.L271:
  27:.././simpleserial/simpleserial.c **** 		}
 2786              		.loc 1 27 8 view .LVU958
 2787 0084 5A00     		lsls	r2, r3, #1
 2788 0086 D3B2     		uxtb	r3, r2
 2789              	.LVL310:
  27:.././simpleserial/simpleserial.c **** 		}
 2790              		.loc 1 27 21 view .LVU959
 2791 0088 52B2     		sxtb	r2, r2
 2792              	.L246:
 2793              	.LVL311:
  26:.././simpleserial/simpleserial.c **** 			crc = crc & 0x80 ? (crc << 1) ^ CW_CRC: crc << 1;
 2794              		.loc 1 26 22 is_stmt 1 view .LVU960
  26:.././simpleserial/simpleserial.c **** 			crc = crc & 0x80 ? (crc << 1) ^ CW_CRC: crc << 1;
 2795              		.loc 1 26 15 view .LVU961
  27:.././simpleserial/simpleserial.c **** 		}
 2796              		.loc 1 27 4 view .LVU962
  27:.././simpleserial/simpleserial.c **** 		}
 2797              		.loc 1 27 28 is_stmt 0 view .LVU963
 2798 008a 5B00     		lsls	r3, r3, #1
 2799              	.LVL312:
  27:.././simpleserial/simpleserial.c **** 		}
 2800              		.loc 1 27 8 view .LVU964
 2801 008c 002A     		cmp	r2, #0
 2802 008e 00DA     		bge	.L263
  27:.././simpleserial/simpleserial.c **** 		}
 2803              		.loc 1 27 34 view .LVU965
 2804 0090 6B40     		eors	r3, r5
 2805              	.L263:
  24:.././simpleserial/simpleserial.c **** 		crc ^= *buf++;
 2806              		.loc 1 24 12 view .LVU966
 2807 0092 0138     		subs	r0, r0, #1
 2808              	.LVL313:
  24:.././simpleserial/simpleserial.c **** 		crc ^= *buf++;
 2809              		.loc 1 24 12 view .LVU967
 2810 0094 C0B2     		uxtb	r0, r0
  27:.././simpleserial/simpleserial.c **** 		}
 2811              		.loc 1 27 8 view .LVU968
 2812 0096 DBB2     		uxtb	r3, r3
 2813              	.LVL314:
  24:.././simpleserial/simpleserial.c **** 		crc ^= *buf++;
 2814              		.loc 1 24 8 is_stmt 1 view .LVU969
  24:.././simpleserial/simpleserial.c **** 		crc ^= *buf++;
 2815              		.loc 1 24 8 is_stmt 0 view .LVU970
 2816 0098 0136     		adds	r6, r6, #1
 2817              	.LVL315:
  24:.././simpleserial/simpleserial.c **** 		crc ^= *buf++;
 2818              		.loc 1 24 8 view .LVU971
 2819 009a FF28     		cmp	r0, #255
 2820 009c 2DD0     		beq	.L264
 2821              	.LVL316:
 2822              	.L249:
  25:.././simpleserial/simpleserial.c **** 		for (k = 0; k < 8; k++) {
 2823              		.loc 1 25 3 is_stmt 1 view .LVU972
  25:.././simpleserial/simpleserial.c **** 		for (k = 0; k < 8; k++) {
 2824              		.loc 1 25 7 is_stmt 0 view .LVU973
 2825 009e 3278     		ldrb	r2, [r6]
 2826 00a0 5340     		eors	r3, r2
 2827              	.LVL317:
  26:.././simpleserial/simpleserial.c **** 			crc = crc & 0x80 ? (crc << 1) ^ CW_CRC: crc << 1;
 2828              		.loc 1 26 3 is_stmt 1 view .LVU974
  26:.././simpleserial/simpleserial.c **** 			crc = crc & 0x80 ? (crc << 1) ^ CW_CRC: crc << 1;
 2829              		.loc 1 26 15 view .LVU975
  27:.././simpleserial/simpleserial.c **** 		}
 2830              		.loc 1 27 4 view .LVU976
  27:.././simpleserial/simpleserial.c **** 		}
 2831              		.loc 1 27 8 is_stmt 0 view .LVU977
 2832 00a2 5AB2     		sxtb	r2, r3
  27:.././simpleserial/simpleserial.c **** 		}
 2833              		.loc 1 27 28 view .LVU978
 2834 00a4 5B00     		lsls	r3, r3, #1
 2835              	.LVL318:
  27:.././simpleserial/simpleserial.c **** 		}
 2836              		.loc 1 27 8 view .LVU979
 2837 00a6 002A     		cmp	r2, #0
 2838 00a8 CFDA     		bge	.L265
  27:.././simpleserial/simpleserial.c **** 		}
 2839              		.loc 1 27 34 view .LVU980
 2840 00aa 6B40     		eors	r3, r5
 2841 00ac 5AB2     		sxtb	r2, r3
 2842              	.LVL319:
  27:.././simpleserial/simpleserial.c **** 		}
 2843              		.loc 1 27 8 view .LVU981
 2844 00ae D9B2     		uxtb	r1, r3
 2845              	.LVL320:
  26:.././simpleserial/simpleserial.c **** 			crc = crc & 0x80 ? (crc << 1) ^ CW_CRC: crc << 1;
 2846              		.loc 1 26 22 is_stmt 1 view .LVU982
  26:.././simpleserial/simpleserial.c **** 			crc = crc & 0x80 ? (crc << 1) ^ CW_CRC: crc << 1;
 2847              		.loc 1 26 15 view .LVU983
  27:.././simpleserial/simpleserial.c **** 		}
 2848              		.loc 1 27 4 view .LVU984
  27:.././simpleserial/simpleserial.c **** 		}
 2849              		.loc 1 27 8 is_stmt 0 view .LVU985
 2850 00b0 002A     		cmp	r2, #0
 2851 00b2 CEDA     		bge	.L266
 2852              	.L235:
  27:.././simpleserial/simpleserial.c **** 		}
 2853              		.loc 1 27 28 view .LVU986
 2854 00b4 4B00     		lsls	r3, r1, #1
  27:.././simpleserial/simpleserial.c **** 		}
 2855              		.loc 1 27 34 view .LVU987
 2856 00b6 6B40     		eors	r3, r5
 2857 00b8 5AB2     		sxtb	r2, r3
  27:.././simpleserial/simpleserial.c **** 		}
 2858              		.loc 1 27 8 view .LVU988
 2859 00ba DBB2     		uxtb	r3, r3
 2860              	.LVL321:
  26:.././simpleserial/simpleserial.c **** 			crc = crc & 0x80 ? (crc << 1) ^ CW_CRC: crc << 1;
 2861              		.loc 1 26 22 is_stmt 1 view .LVU989
  26:.././simpleserial/simpleserial.c **** 			crc = crc & 0x80 ? (crc << 1) ^ CW_CRC: crc << 1;
 2862              		.loc 1 26 15 view .LVU990
  27:.././simpleserial/simpleserial.c **** 		}
 2863              		.loc 1 27 4 view .LVU991
  27:.././simpleserial/simpleserial.c **** 		}
 2864              		.loc 1 27 8 is_stmt 0 view .LVU992
 2865 00bc 002A     		cmp	r2, #0
 2866 00be CDDA     		bge	.L267
 2867              	.L237:
  27:.././simpleserial/simpleserial.c **** 		}
 2868              		.loc 1 27 28 view .LVU993
 2869 00c0 5B00     		lsls	r3, r3, #1
 2870              	.LVL322:
  27:.././simpleserial/simpleserial.c **** 		}
 2871              		.loc 1 27 34 view .LVU994
 2872 00c2 6B40     		eors	r3, r5
 2873 00c4 5AB2     		sxtb	r2, r3
  27:.././simpleserial/simpleserial.c **** 		}
 2874              		.loc 1 27 8 view .LVU995
 2875 00c6 DBB2     		uxtb	r3, r3
 2876              	.LVL323:
  26:.././simpleserial/simpleserial.c **** 			crc = crc & 0x80 ? (crc << 1) ^ CW_CRC: crc << 1;
 2877              		.loc 1 26 22 is_stmt 1 view .LVU996
  26:.././simpleserial/simpleserial.c **** 			crc = crc & 0x80 ? (crc << 1) ^ CW_CRC: crc << 1;
 2878              		.loc 1 26 15 view .LVU997
  27:.././simpleserial/simpleserial.c **** 		}
 2879              		.loc 1 27 4 view .LVU998
  27:.././simpleserial/simpleserial.c **** 		}
 2880              		.loc 1 27 8 is_stmt 0 view .LVU999
 2881 00c8 002A     		cmp	r2, #0
 2882 00ca CCDA     		bge	.L268
 2883              	.L239:
  27:.././simpleserial/simpleserial.c **** 		}
 2884              		.loc 1 27 28 view .LVU1000
 2885 00cc 5B00     		lsls	r3, r3, #1
 2886              	.LVL324:
  27:.././simpleserial/simpleserial.c **** 		}
 2887              		.loc 1 27 34 view .LVU1001
 2888 00ce 6B40     		eors	r3, r5
 2889 00d0 5AB2     		sxtb	r2, r3
  27:.././simpleserial/simpleserial.c **** 		}
 2890              		.loc 1 27 8 view .LVU1002
 2891 00d2 DBB2     		uxtb	r3, r3
 2892              	.LVL325:
  26:.././simpleserial/simpleserial.c **** 			crc = crc & 0x80 ? (crc << 1) ^ CW_CRC: crc << 1;
 2893              		.loc 1 26 22 is_stmt 1 view .LVU1003
  26:.././simpleserial/simpleserial.c **** 			crc = crc & 0x80 ? (crc << 1) ^ CW_CRC: crc << 1;
 2894              		.loc 1 26 15 view .LVU1004
  27:.././simpleserial/simpleserial.c **** 		}
 2895              		.loc 1 27 4 view .LVU1005
  27:.././simpleserial/simpleserial.c **** 		}
 2896              		.loc 1 27 8 is_stmt 0 view .LVU1006
 2897 00d4 002A     		cmp	r2, #0
 2898 00d6 CBDA     		bge	.L269
 2899              	.L241:
  27:.././simpleserial/simpleserial.c **** 		}
 2900              		.loc 1 27 28 view .LVU1007
 2901 00d8 5B00     		lsls	r3, r3, #1
 2902              	.LVL326:
  27:.././simpleserial/simpleserial.c **** 		}
 2903              		.loc 1 27 34 view .LVU1008
 2904 00da 6B40     		eors	r3, r5
 2905 00dc 5AB2     		sxtb	r2, r3
  27:.././simpleserial/simpleserial.c **** 		}
 2906              		.loc 1 27 8 view .LVU1009
 2907 00de DBB2     		uxtb	r3, r3
 2908              	.LVL327:
  26:.././simpleserial/simpleserial.c **** 			crc = crc & 0x80 ? (crc << 1) ^ CW_CRC: crc << 1;
 2909              		.loc 1 26 22 is_stmt 1 view .LVU1010
  26:.././simpleserial/simpleserial.c **** 			crc = crc & 0x80 ? (crc << 1) ^ CW_CRC: crc << 1;
 2910              		.loc 1 26 15 view .LVU1011
  27:.././simpleserial/simpleserial.c **** 		}
 2911              		.loc 1 27 4 view .LVU1012
  27:.././simpleserial/simpleserial.c **** 		}
 2912              		.loc 1 27 8 is_stmt 0 view .LVU1013
 2913 00e0 002A     		cmp	r2, #0
 2914 00e2 CADA     		bge	.L270
 2915              	.L243:
  27:.././simpleserial/simpleserial.c **** 		}
 2916              		.loc 1 27 28 view .LVU1014
 2917 00e4 5B00     		lsls	r3, r3, #1
 2918              	.LVL328:
  27:.././simpleserial/simpleserial.c **** 		}
 2919              		.loc 1 27 34 view .LVU1015
 2920 00e6 6B40     		eors	r3, r5
 2921 00e8 5AB2     		sxtb	r2, r3
  27:.././simpleserial/simpleserial.c **** 		}
 2922              		.loc 1 27 8 view .LVU1016
 2923 00ea DBB2     		uxtb	r3, r3
 2924              	.LVL329:
  26:.././simpleserial/simpleserial.c **** 			crc = crc & 0x80 ? (crc << 1) ^ CW_CRC: crc << 1;
 2925              		.loc 1 26 22 is_stmt 1 view .LVU1017
  26:.././simpleserial/simpleserial.c **** 			crc = crc & 0x80 ? (crc << 1) ^ CW_CRC: crc << 1;
 2926              		.loc 1 26 15 view .LVU1018
  27:.././simpleserial/simpleserial.c **** 		}
 2927              		.loc 1 27 4 view .LVU1019
  27:.././simpleserial/simpleserial.c **** 		}
 2928              		.loc 1 27 8 is_stmt 0 view .LVU1020
 2929 00ec 002A     		cmp	r2, #0
 2930 00ee C9DA     		bge	.L271
 2931              	.L245:
  27:.././simpleserial/simpleserial.c **** 		}
 2932              		.loc 1 27 28 view .LVU1021
 2933 00f0 5B00     		lsls	r3, r3, #1
 2934              	.LVL330:
  27:.././simpleserial/simpleserial.c **** 		}
 2935              		.loc 1 27 34 view .LVU1022
 2936 00f2 6B40     		eors	r3, r5
 2937 00f4 5AB2     		sxtb	r2, r3
  27:.././simpleserial/simpleserial.c **** 		}
 2938              		.loc 1 27 8 view .LVU1023
 2939 00f6 DBB2     		uxtb	r3, r3
 2940 00f8 C7E7     		b	.L246
 2941              	.LVL331:
 2942              	.L264:
  30:.././simpleserial/simpleserial.c **** 
 2943              		.loc 1 30 2 is_stmt 1 view .LVU1024
  30:.././simpleserial/simpleserial.c **** 
 2944              		.loc 1 30 2 is_stmt 0 view .LVU1025
 2945              	.LBE66:
 2946              	.LBE68:
 240:.././simpleserial/simpleserial.c **** 	data_buf[i + 4] = 0x00;
 2947              		.loc 1 240 18 view .LVU1026
 2948 00fa 6A46     		mov	r2, sp
 2949 00fc 6146     		mov	r1, ip
 2950 00fe 5354     		strb	r3, [r2, r1]
 241:.././simpleserial/simpleserial.c **** 	stuff_data(data_buf, i + 5);
 2951              		.loc 1 241 2 is_stmt 1 view .LVU1027
 241:.././simpleserial/simpleserial.c **** 	stuff_data(data_buf, i + 5);
 2952              		.loc 1 241 18 is_stmt 0 view .LVU1028
 2953 0100 0023     		movs	r3, #0
 2954 0102 4146     		mov	r1, r8
 2955 0104 5354     		strb	r3, [r2, r1]
 242:.././simpleserial/simpleserial.c **** 	for (int i = 0; i < size + 5; i++) {
 2956              		.loc 1 242 2 is_stmt 1 view .LVU1029
 2957              	.LVL332:
 2958              	.LBB69:
 2959              	.LBI69:
 106:.././simpleserial/simpleserial.c **** {
 2960              		.loc 1 106 9 view .LVU1030
 2961              	.LBB70:
 110:.././simpleserial/simpleserial.c **** 		if (buf[i] == FRAME_BYTE) {
 2962              		.loc 1 110 9 view .LVU1031
 110:.././simpleserial/simpleserial.c **** 		if (buf[i] == FRAME_BYTE) {
 2963              		.loc 1 110 2 is_stmt 0 view .LVU1032
 2964 0106 012F     		cmp	r7, #1
 2965 0108 11D9     		bls	.L254
 2966              	.L255:
 110:.././simpleserial/simpleserial.c **** 		if (buf[i] == FRAME_BYTE) {
 2967              		.loc 1 110 2 view .LVU1033
 2968 010a 4946     		mov	r1, r9
 109:.././simpleserial/simpleserial.c **** 	for (; i < len; i++) {
 2969              		.loc 1 109 10 view .LVU1034
 2970 010c 0022     		movs	r2, #0
 108:.././simpleserial/simpleserial.c **** 	uint8_t last = 0;
 2971              		.loc 1 108 10 view .LVU1035
 2972 010e 0123     		movs	r3, #1
 2973              	.LVL333:
 2974              	.L253:
 111:.././simpleserial/simpleserial.c **** 			buf[last] = i - last;
 2975              		.loc 1 111 3 is_stmt 1 view .LVU1036
 111:.././simpleserial/simpleserial.c **** 			buf[last] = i - last;
 2976              		.loc 1 111 6 is_stmt 0 view .LVU1037
 2977 0110 0878     		ldrb	r0, [r1]
 2978 0112 0028     		cmp	r0, #0
 2979 0114 06D1     		bne	.L252
 112:.././simpleserial/simpleserial.c **** 			last = i;
 2980              		.loc 1 112 4 is_stmt 1 view .LVU1038
 112:.././simpleserial/simpleserial.c **** 			last = i;
 2981              		.loc 1 112 14 is_stmt 0 view .LVU1039
 2982 0116 40A8     		add	r0, sp, #256
 2983 0118 8018     		adds	r0, r0, r2
 2984 011a 0138     		subs	r0, r0, #1
 112:.././simpleserial/simpleserial.c **** 			last = i;
 2985              		.loc 1 112 18 view .LVU1040
 2986 011c 9A1A     		subs	r2, r3, r2
 2987              	.LVL334:
 112:.././simpleserial/simpleserial.c **** 			last = i;
 2988              		.loc 1 112 14 view .LVU1041
 2989 011e FF38     		subs	r0, r0, #255
 2990 0120 0270     		strb	r2, [r0]
 113:.././simpleserial/simpleserial.c **** 		}
 2991              		.loc 1 113 4 is_stmt 1 view .LVU1042
 2992              	.LVL335:
 112:.././simpleserial/simpleserial.c **** 			last = i;
 2993              		.loc 1 112 14 is_stmt 0 view .LVU1043
 2994 0122 1A00     		movs	r2, r3
 2995              	.LVL336:
 2996              	.L252:
 110:.././simpleserial/simpleserial.c **** 		if (buf[i] == FRAME_BYTE) {
 2997              		.loc 1 110 18 is_stmt 1 view .LVU1044
 110:.././simpleserial/simpleserial.c **** 		if (buf[i] == FRAME_BYTE) {
 2998              		.loc 1 110 19 is_stmt 0 view .LVU1045
 2999 0124 0133     		adds	r3, r3, #1
 3000              	.LVL337:
 110:.././simpleserial/simpleserial.c **** 		if (buf[i] == FRAME_BYTE) {
 3001              		.loc 1 110 19 view .LVU1046
 3002 0126 DBB2     		uxtb	r3, r3
 3003              	.LVL338:
 110:.././simpleserial/simpleserial.c **** 		if (buf[i] == FRAME_BYTE) {
 3004              		.loc 1 110 9 is_stmt 1 view .LVU1047
 110:.././simpleserial/simpleserial.c **** 		if (buf[i] == FRAME_BYTE) {
 3005              		.loc 1 110 2 is_stmt 0 view .LVU1048
 3006 0128 0131     		adds	r1, r1, #1
 3007 012a BB42     		cmp	r3, r7
 3008 012c F0D1     		bne	.L253
 3009              	.LVL339:
 3010              	.L254:
 110:.././simpleserial/simpleserial.c **** 		if (buf[i] == FRAME_BYTE) {
 3011              		.loc 1 110 2 view .LVU1049
 3012              	.LBE70:
 3013              	.LBE69:
 3014              	.LBB72:
 243:.././simpleserial/simpleserial.c **** 		putch(data_buf[i]);
 3015              		.loc 1 243 18 is_stmt 1 view .LVU1050
 3016 012e 6E46     		mov	r6, sp
 243:.././simpleserial/simpleserial.c **** 		putch(data_buf[i]);
 3017              		.loc 1 243 11 is_stmt 0 view .LVU1051
 3018 0130 0025     		movs	r5, #0
 3019              	.LVL340:
 3020              	.L251:
 244:.././simpleserial/simpleserial.c **** 	}
 3021              		.loc 1 244 3 is_stmt 1 discriminator 3 view .LVU1052
 3022 0132 3078     		ldrb	r0, [r6]
 243:.././simpleserial/simpleserial.c **** 		putch(data_buf[i]);
 3023              		.loc 1 243 33 is_stmt 0 discriminator 3 view .LVU1053
 3024 0134 0135     		adds	r5, r5, #1
 3025              	.LVL341:
 244:.././simpleserial/simpleserial.c **** 	}
 3026              		.loc 1 244 3 discriminator 3 view .LVU1054
 3027 0136 FFF7FEFF 		bl	putch
 3028              	.LVL342:
 243:.././simpleserial/simpleserial.c **** 		putch(data_buf[i]);
 3029              		.loc 1 243 32 is_stmt 1 discriminator 3 view .LVU1055
 243:.././simpleserial/simpleserial.c **** 		putch(data_buf[i]);
 3030              		.loc 1 243 18 discriminator 3 view .LVU1056
 243:.././simpleserial/simpleserial.c **** 		putch(data_buf[i]);
 3031              		.loc 1 243 2 is_stmt 0 discriminator 3 view .LVU1057
 3032 013a 0136     		adds	r6, r6, #1
 3033 013c AC42     		cmp	r4, r5
 3034 013e F8DA     		bge	.L251
 3035              	.LBE72:
 3036              		.loc 1 246 1 view .LVU1058
 3037 0140 41B0     		add	sp, sp, #260
 3038              		@ sp needed
 3039              	.LVL343:
 3040              		.loc 1 246 1 view .LVU1059
 3041 0142 C0BC     		pop	{r6, r7}
 3042 0144 B946     		mov	r9, r7
 3043 0146 B046     		mov	r8, r6
 3044 0148 F0BD     		pop	{r4, r5, r6, r7, pc}
 3045              	.LVL344:
 3046              	.L231:
 240:.././simpleserial/simpleserial.c **** 	data_buf[i + 4] = 0x00;
 3047              		.loc 1 240 2 is_stmt 1 view .LVU1060
 3048              	.LBB73:
  20:.././simpleserial/simpleserial.c **** {
 3049              		.loc 1 20 9 view .LVU1061
 3050              	.LBB67:
  22:.././simpleserial/simpleserial.c **** 	uint8_t crc = 0x00;
 3051              		.loc 1 22 2 view .LVU1062
  23:.././simpleserial/simpleserial.c **** 	while (len--) {
 3052              		.loc 1 23 2 view .LVU1063
  24:.././simpleserial/simpleserial.c **** 		crc ^= *buf++;
 3053              		.loc 1 24 2 view .LVU1064
  24:.././simpleserial/simpleserial.c **** 		crc ^= *buf++;
 3054              		.loc 1 24 8 view .LVU1065
 3055 014a 0423     		movs	r3, #4
 3056 014c 9846     		mov	r8, r3
 3057 014e 013B     		subs	r3, r3, #1
  24:.././simpleserial/simpleserial.c **** 		crc ^= *buf++;
 3058              		.loc 1 24 12 is_stmt 0 view .LVU1066
 3059 0150 0120     		movs	r0, #1
 3060              	.LVL345:
  24:.././simpleserial/simpleserial.c **** 		crc ^= *buf++;
 3061              		.loc 1 24 8 view .LVU1067
 3062 0152 0527     		movs	r7, #5
 3063 0154 9C46     		mov	ip, r3
 3064 0156 0424     		movs	r4, #4
 3065 0158 70E7     		b	.L256
 3066              	.LVL346:
 3067              	.L232:
  30:.././simpleserial/simpleserial.c **** 
 3068              		.loc 1 30 2 is_stmt 1 view .LVU1068
  30:.././simpleserial/simpleserial.c **** 
 3069              		.loc 1 30 2 is_stmt 0 view .LVU1069
 3070              	.LBE67:
 3071              	.LBE73:
 240:.././simpleserial/simpleserial.c **** 	data_buf[i + 4] = 0x00;
 3072              		.loc 1 240 18 view .LVU1070
 3073 015a 6B46     		mov	r3, sp
 3074 015c 6246     		mov	r2, ip
 3075 015e 9E54     		strb	r6, [r3, r2]
 241:.././simpleserial/simpleserial.c **** 	stuff_data(data_buf, i + 5);
 3076              		.loc 1 241 2 is_stmt 1 view .LVU1071
 241:.././simpleserial/simpleserial.c **** 	stuff_data(data_buf, i + 5);
 3077              		.loc 1 241 18 is_stmt 0 view .LVU1072
 3078 0160 1E55     		strb	r6, [r3, r4]
 242:.././simpleserial/simpleserial.c **** 	for (int i = 0; i < size + 5; i++) {
 3079              		.loc 1 242 2 is_stmt 1 view .LVU1073
 3080              	.LVL347:
 3081              	.LBB74:
 106:.././simpleserial/simpleserial.c **** {
 3082              		.loc 1 106 9 view .LVU1074
 3083              	.LBB71:
 110:.././simpleserial/simpleserial.c **** 		if (buf[i] == FRAME_BYTE) {
 3084              		.loc 1 110 9 view .LVU1075
 3085 0162 0123     		movs	r3, #1
 3086 0164 6B44     		add	r3, r3, sp
 3087              	.LBE71:
 3088              	.LBE74:
 241:.././simpleserial/simpleserial.c **** 	stuff_data(data_buf, i + 5);
 3089              		.loc 1 241 18 is_stmt 0 view .LVU1076
 3090 0166 0327     		movs	r7, #3
 3091 0168 9946     		mov	r9, r3
 3092 016a CEE7     		b	.L255
 3093              		.cfi_endproc
 3094              	.LFE10:
 3096              		.section	.text.ss_get_commands,"ax",%progbits
 3097              		.align	1
 3098              		.p2align 2,,3
 3099              		.global	ss_get_commands
 3100              		.syntax unified
 3101              		.code	16
 3102              		.thumb_func
 3103              		.fpu softvfp
 3105              	ss_get_commands:
 3106              	.LVL348:
 3107              	.LFB4:
  95:.././simpleserial/simpleserial.c ****     uint8_t cmd_chars[MAX_SS_CMDS];
 3108              		.loc 1 95 1 is_stmt 1 view -0
 3109              		.cfi_startproc
 3110              		@ args = 0, pretend = 0, frame = 16
 3111              		@ frame_needed = 0, uses_anonymous_args = 0
  96:.././simpleserial/simpleserial.c ****     for (uint8_t i = 0; i < (num_commands & 0xFF); i++) {
 3112              		.loc 1 96 5 view .LVU1078
  97:.././simpleserial/simpleserial.c ****         cmd_chars[i] = commands[i].c;
 3113              		.loc 1 97 5 view .LVU1079
 3114              	.LBB75:
  97:.././simpleserial/simpleserial.c ****         cmd_chars[i] = commands[i].c;
 3115              		.loc 1 97 10 view .LVU1080
  97:.././simpleserial/simpleserial.c ****         cmd_chars[i] = commands[i].c;
 3116              		.loc 1 97 25 view .LVU1081
 3117              	.LBE75:
  95:.././simpleserial/simpleserial.c ****     uint8_t cmd_chars[MAX_SS_CMDS];
 3118              		.loc 1 95 1 is_stmt 0 view .LVU1082
 3119 0000 70B5     		push	{r4, r5, r6, lr}
 3120              	.LCFI17:
 3121              		.cfi_def_cfa_offset 16
 3122              		.cfi_offset 4, -16
 3123              		.cfi_offset 5, -12
 3124              		.cfi_offset 6, -8
 3125              		.cfi_offset 14, -4
 3126              	.LBB76:
  97:.././simpleserial/simpleserial.c ****         cmd_chars[i] = commands[i].c;
 3127              		.loc 1 97 43 view .LVU1083
 3128 0002 0E4B     		ldr	r3, .L279
 3129              	.LVL349:
  97:.././simpleserial/simpleserial.c ****         cmd_chars[i] = commands[i].c;
 3130              		.loc 1 97 43 view .LVU1084
 3131              	.LBE76:
  95:.././simpleserial/simpleserial.c ****     uint8_t cmd_chars[MAX_SS_CMDS];
 3132              		.loc 1 95 1 view .LVU1085
 3133 0004 84B0     		sub	sp, sp, #16
 3134              	.LCFI18:
 3135              		.cfi_def_cfa_offset 32
 3136              	.LBB77:
  97:.././simpleserial/simpleserial.c ****         cmd_chars[i] = commands[i].c;
 3137              		.loc 1 97 43 view .LVU1086
 3138 0006 1C78     		ldrb	r4, [r3]
 3139 0008 6A46     		mov	r2, sp
 3140              	.LVL350:
  97:.././simpleserial/simpleserial.c ****         cmd_chars[i] = commands[i].c;
 3141              		.loc 1 97 43 view .LVU1087
 3142 000a 1E68     		ldr	r6, [r3]
  97:.././simpleserial/simpleserial.c ****         cmd_chars[i] = commands[i].c;
 3143              		.loc 1 97 5 view .LVU1088
 3144 000c 002C     		cmp	r4, #0
 3145 000e 0DD0     		beq	.L273
  97:.././simpleserial/simpleserial.c ****         cmd_chars[i] = commands[i].c;
 3146              		.loc 1 97 18 view .LVU1089
 3147 0010 0023     		movs	r3, #0
  97:.././simpleserial/simpleserial.c ****         cmd_chars[i] = commands[i].c;
 3148              		.loc 1 97 27 view .LVU1090
 3149 0012 0021     		movs	r1, #0
 3150              	.LVL351:
  97:.././simpleserial/simpleserial.c ****         cmd_chars[i] = commands[i].c;
 3151              		.loc 1 97 27 view .LVU1091
 3152 0014 6A46     		mov	r2, sp
 3153 0016 0A4D     		ldr	r5, .L279+4
 3154              	.LVL352:
 3155              	.L274:
  98:.././simpleserial/simpleserial.c ****     }
 3156              		.loc 1 98 9 is_stmt 1 discriminator 3 view .LVU1092
  98:.././simpleserial/simpleserial.c ****     }
 3157              		.loc 1 98 35 is_stmt 0 discriminator 3 view .LVU1093
 3158 0018 4800     		lsls	r0, r1, #1
 3159 001a 4018     		adds	r0, r0, r1
 3160 001c 8000     		lsls	r0, r0, #2
  98:.././simpleserial/simpleserial.c ****     }
 3161              		.loc 1 98 22 discriminator 3 view .LVU1094
 3162 001e 285C     		ldrb	r0, [r5, r0]
  97:.././simpleserial/simpleserial.c ****         cmd_chars[i] = commands[i].c;
 3163              		.loc 1 97 53 discriminator 3 view .LVU1095
 3164 0020 0133     		adds	r3, r3, #1
 3165              	.LVL353:
  97:.././simpleserial/simpleserial.c ****         cmd_chars[i] = commands[i].c;
 3166              		.loc 1 97 53 discriminator 3 view .LVU1096
 3167 0022 DBB2     		uxtb	r3, r3
  98:.././simpleserial/simpleserial.c ****     }
 3168              		.loc 1 98 22 discriminator 3 view .LVU1097
 3169 0024 5054     		strb	r0, [r2, r1]
  97:.././simpleserial/simpleserial.c ****         cmd_chars[i] = commands[i].c;
 3170              		.loc 1 97 52 is_stmt 1 discriminator 3 view .LVU1098
 3171              	.LVL354:
  97:.././simpleserial/simpleserial.c ****         cmd_chars[i] = commands[i].c;
 3172              		.loc 1 97 25 discriminator 3 view .LVU1099
  97:.././simpleserial/simpleserial.c ****         cmd_chars[i] = commands[i].c;
 3173              		.loc 1 97 27 is_stmt 0 discriminator 3 view .LVU1100
 3174 0026 1900     		movs	r1, r3
  97:.././simpleserial/simpleserial.c ****         cmd_chars[i] = commands[i].c;
 3175              		.loc 1 97 5 discriminator 3 view .LVU1101
 3176 0028 A342     		cmp	r3, r4
 3177 002a F5DB     		blt	.L274
 3178              	.LVL355:
 3179              	.L273:
  97:.././simpleserial/simpleserial.c ****         cmd_chars[i] = commands[i].c;
 3180              		.loc 1 97 5 discriminator 3 view .LVU1102
 3181              	.LBE77:
 101:.././simpleserial/simpleserial.c ****     return 0x00;
 3182              		.loc 1 101 5 is_stmt 1 view .LVU1103
 3183 002c 7220     		movs	r0, #114
 3184 002e F1B2     		uxtb	r1, r6
 3185 0030 FFF7FEFF 		bl	simpleserial_put
 3186              	.LVL356:
 102:.././simpleserial/simpleserial.c **** 
 3187              		.loc 1 102 5 view .LVU1104
 104:.././simpleserial/simpleserial.c **** 
 3188              		.loc 1 104 1 is_stmt 0 view .LVU1105
 3189 0034 0020     		movs	r0, #0
 3190 0036 04B0     		add	sp, sp, #16
 3191              		@ sp needed
 3192 0038 70BD     		pop	{r4, r5, r6, pc}
 3193              	.L280:
 3194 003a C046     		.align	2
 3195              	.L279:
 3196 003c 00000000 		.word	.LANCHOR0
 3197 0040 04000000 		.word	commands
 3198              		.cfi_endproc
 3199              	.LFE4:
 3201              		.bss
 3202              		.align	2
 3203              		.set	.LANCHOR0,. + 0
 3206              	num_commands:
 3207 0000 00000000 		.space	4
 3210              	commands:
 3211 0004 00000000 		.space	192
 3211      00000000 
 3211      00000000 
 3211      00000000 
 3211      00000000 
 3212              		.text
 3213              	.Letext0:
 3214              		.file 2 "c:\\users\\alexb\\chipwh~1\\cw\\home\\portable\\armgcc\\arm-none-eabi\\include\\machine\\
 3215              		.file 3 "c:\\users\\alexb\\chipwh~1\\cw\\home\\portable\\armgcc\\arm-none-eabi\\include\\sys\\_std
 3216              		.file 4 ".././hal/stm32f0/stm32f0_hal.h"
 3217              		.file 5 ".././simpleserial/simpleserial.h"
 3218              		.file 6 "<built-in>"